(dp1
S'unitsfrom'
p2
(dp3
S'sortable'
p4
I2
sS'sql'
p5
S'INT  , INDEX UnitsFrom__idx (UnitsFrom), FOREIGN KEY (UnitsFrom) REFERENCES units (id) ON DELETE CASCADE'
p6
sS'length'
p7
I512
sS'notnull'
p8
I00
sS'unique'
p9
I00
sS'type'
p10
S'reference units'
p11
ssS'conversionfactor'
p12
(dp13
S'length'
p14
I512
sS'unique'
p15
I00
sS'sortable'
p16
I3
sS'sql'
p17
S'NUMERIC(65,10)'
p18
sS'notnull'
p19
I00
sS'type'
p20
S'decimal(65,10)'
p21
ssS'id'
p22
(dp23
g4
I1
sg5
S'INT AUTO_INCREMENT NOT NULL'
p24
sg7
I512
sg8
I00
sg9
I00
sg10
S'id'
p25
ss.