(dp1
S'treatmentname'
p2
(dp3
S'sortable'
p4
I2
sS'sql'
p5
S'VARCHAR(512)'
p6
sS'length'
p7
I512
sS'notnull'
p8
I00
sS'unique'
p9
I00
sS'type'
p10
S'string'
p11
ssS'treatnameabbrev'
p12
(dp13
S'length'
p14
S'10'
p15
sS'unique'
p16
I00
sS'sortable'
p17
I4
sS'sql'
p18
S'VARCHAR(10)'
p19
sS'notnull'
p20
I00
sS'type'
p21
S'string'
p22
ssS'id'
p23
(dp24
g4
I1
sg5
S'INT AUTO_INCREMENT NOT NULL'
p25
sg7
I512
sg8
I00
sg9
I00
sg10
S'id'
p26
ssS'treatmentcode'
p27
(dp28
g14
S'4'
sg16
I00
sg17
I3
sg18
S'VARCHAR(4)'
p29
sg20
I00
sg21
g22
ss.