(dp1
S'ccasnum'
p2
(dp3
S'sortable'
p4
I4
sS'sql'
p5
S'VARCHAR(512)'
p6
sS'length'
p7
I512
sS'notnull'
p8
I00
sS'unique'
p9
I00
sS'type'
p10
S'string'
p11
ssS'chazard'
p12
(dp13
S'sortable'
p14
I11
sS'sql'
p15
S'LONGTEXT'
p16
sS'length'
p17
I512
sS'notnull'
p18
I00
sS'unique'
p19
I00
sS'type'
p20
S'list:integer'
p21
ssS'cmolecularformula'
p22
(dp23
g4
I10
sg5
S'VARCHAR(512)'
p24
sg7
I512
sg8
I00
sg9
I00
sg10
g11
ssS'cstate'
p25
(dp26
S'length'
p27
I512
sS'unique'
p28
I00
sS'sortable'
p29
I6
sS'sql'
p30
S'INT  , INDEX cstate__idx (cstate), FOREIGN KEY (cstate) REFERENCES state (id) ON DELETE CASCADE'
p31
sS'notnull'
p32
I00
sS'type'
p33
S'reference state'
p34
ssS'cstatefedwastecode'
p35
(dp36
S'sortable'
p37
I12
sS'sql'
p38
S'LONGTEXT'
p39
sS'length'
p40
I512
sS'notnull'
p41
I00
sS'unique'
p42
I00
sS'type'
p43
S'list:integer'
p44
ssS'ctreatment'
p45
(dp46
g4
I9
sg5
S'INT  , INDEX cTreatment__idx (cTreatment), FOREIGN KEY (cTreatment) REFERENCES Treatment (id) ON DELETE CASCADE'
p47
sg7
I512
sg8
I00
sg9
I00
sg10
S'reference Treatment'
p48
ssS'cname'
p49
(dp50
g4
I2
sg5
S'VARCHAR(512)'
p51
sg7
I512
sg8
I00
sg9
I00
sg10
g11
ssS'chazwastecodes'
p52
(dp53
S'sortable'
p54
I10
sS'sql'
p55
S'VARCHAR(512)'
p56
sS'length'
p57
I512
sS'notnull'
p58
I00
sS'unique'
p59
I00
sS'type'
p60
S'string'
p61
ssS'cgroup'
p62
(dp63
g4
I6
sg5
S'VARCHAR(512)'
p64
sg7
I512
sg8
I00
sg9
I00
sg10
g11
ssS'cprefix'
p65
(dp66
S'sortable'
p67
I3
sS'sql'
p68
S'VARCHAR(512)'
p69
sS'length'
p70
I512
sS'notnull'
p71
I00
sS'unique'
p72
I00
sS'type'
p73
S'string'
p74
ssS'cdisposalcode'
p75
(dp76
S'sortable'
p77
I7
sS'sql'
p78
S'VARCHAR(512)'
p79
sS'length'
p80
I512
sS'notnull'
p81
I00
sS'unique'
p82
I00
sS'type'
p83
S'string'
p84
ssS'ctsdf'
p85
(dp86
g4
I8
sg5
S'INT  , INDEX cTSDF__idx (cTSDF), FOREIGN KEY (cTSDF) REFERENCES TSDF (id) ON DELETE CASCADE'
p87
sg7
I512
sg8
I00
sg9
I00
sg10
S'reference TSDF'
p88
ssS'id'
p89
(dp90
g4
I1
sg5
S'INT AUTO_INCREMENT NOT NULL'
p91
sg7
I512
sg8
I00
sg9
I00
sg10
S'id'
p92
ss.