(dp1
S'iinputnumber'
p2
(dp3
S'length'
p4
I512
sS'unique'
p5
I00
sS'sortable'
p6
I16
sS'sql'
p7
S'INT'
p8
sS'notnull'
p9
I00
sS'type'
p10
S'integer'
p11
ssS'iamount'
p12
(dp13
S'sortable'
p14
I8
sS'sql'
p15
S'NUMERIC(65,2)'
p16
sS'length'
p17
I512
sS'notnull'
p18
I00
sS'unique'
p19
I00
sS'type'
p20
S'decimal(65,2)'
p21
ssS'ipounds'
p22
(dp23
S'sortable'
p24
I10
sS'sql'
p25
S'VARCHAR(512)'
p26
sS'length'
p27
I512
sS'notnull'
p28
I00
sS'unique'
p29
I00
sS'type'
p30
S'string'
p31
ssS'iunits'
p32
(dp33
S'sortable'
p34
I5
sS'sql'
p35
S'INT  , INDEX Iunits__idx (Iunits), FOREIGN KEY (Iunits) REFERENCES units (id) ON DELETE CASCADE'
p36
sS'length'
p37
I512
sS'notnull'
p38
I00
sS'unique'
p39
I00
sS'type'
p40
S'reference units'
p41
ssS'iname'
p42
(dp43
S'sortable'
p44
I2
sS'sql'
p45
S'INT  , INDEX Iname__idx (Iname), FOREIGN KEY (Iname) REFERENCES chemindex (id) ON DELETE CASCADE'
p46
sS'length'
p47
I512
sS'notnull'
p48
I00
sS'unique'
p49
I00
sS'type'
p50
S'reference chemindex'
p51
ssS'idisposalcode'
p52
(dp53
S'sortable'
p54
I3
sS'sql'
p55
S'VARCHAR(512)'
p56
sS'length'
p57
I512
sS'notnull'
p58
I00
sS'unique'
p59
I00
sS'type'
p60
S'string'
p61
ssS'iinputid'
p62
(dp63
g4
I512
sg5
I00
sg6
I15
sg7
S'VARCHAR(512)'
p64
sg9
I00
sg10
S'string'
p65
ssS'icapacity'
p66
(dp67
S'sortable'
p68
I7
sS'sql'
p69
S'INT'
p70
sS'length'
p71
I512
sS'notnull'
p72
I00
sS'unique'
p73
I00
sS'type'
p74
S'integer'
p75
ssS'icondition'
p76
(dp77
S'sortable'
p78
I4
sS'sql'
p79
S'INT  , INDEX Icondition__idx (Icondition), FOREIGN KEY (Icondition) REFERENCES conditionlist (id) ON DELETE CASCADE'
p80
sS'length'
p81
I512
sS'notnull'
p82
I00
sS'unique'
p83
I00
sS'type'
p84
S'reference conditionlist'
p85
ssS'istate'
p86
(dp87
S'sortable'
p88
I9
sS'sql'
p89
S'INT  , INDEX Istate__idx (Istate), FOREIGN KEY (Istate) REFERENCES state (id) ON DELETE CASCADE'
p90
sS'length'
p91
I512
sS'notnull'
p92
I00
sS'unique'
p93
I00
sS'type'
p94
S'reference state'
p95
ssS'imixture'
p96
(dp97
S'sortable'
p98
I5
sS'sql'
p99
S'LONGTEXT'
p100
sS'length'
p101
I32768
sS'notnull'
p102
I00
sS'unique'
p103
I00
sS'type'
p104
S'text'
p105
ssS'ihazwastecodes'
p106
(dp107
S'sortable'
p108
I10
sS'sql'
p109
S'VARCHAR(512)'
p110
sS'length'
p111
I512
sS'notnull'
p112
I00
sS'unique'
p113
I00
sS'type'
p114
S'string'
p115
ssS'icomments'
p116
(dp117
g98
I6
sg99
S'LONGTEXT'
p118
sg101
I32768
sg102
I00
sg103
I00
sg104
g105
ssS'ireceptacle'
p119
(dp120
S'sortable'
p121
I6
sS'sql'
p122
S'INT  , INDEX Ireceptacle__idx (Ireceptacle), FOREIGN KEY (Ireceptacle) REFERENCES receptacle (id) ON DELETE CASCADE'
p123
sS'length'
p124
I512
sS'notnull'
p125
I00
sS'unique'
p126
I00
sS'type'
p127
S'reference receptacle'
p128
ssS'id'
p129
(dp130
S'sortable'
p131
I1
sS'sql'
p132
S'INT AUTO_INCREMENT NOT NULL'
p133
sS'length'
p134
I512
sS'notnull'
p135
I00
sS'unique'
p136
I00
sS'type'
p137
S'id'
p138
ssS'icomponents'
p139
(dp140
g98
I4
sg99
S'LONGTEXT'
p141
sg101
I32768
sg102
I00
sg103
I00
sg104
g105
ss.