(dp1
S'w1'
p2
(dp3
S'length'
p4
I512
sS'unique'
p5
I00
sS'sortable'
p6
I7
sS'sql'
p7
S'VARCHAR(512)'
p8
sS'notnull'
p9
I00
sS'type'
p10
S'string'
p11
ssS'h1'
p12
(dp13
g4
I512
sg5
I00
sg6
I8
sg7
S'VARCHAR(512)'
p14
sg9
I00
sg10
g11
ssS'element'
p15
(dp16
g4
I512
sg5
I00
sg6
I4
sg7
S'VARCHAR(512)'
p17
sg9
I00
sg10
g11
ssS'shipment'
p18
(dp19
g4
I512
sg5
I00
sg6
I2
sg7
S'INT  , INDEX shipment__idx (shipment), FOREIGN KEY (shipment) REFERENCES shipment (id) ON DELETE CASCADE'
p20
sg9
I00
sg10
S'reference shipment'
p21
ssS'y1'
p22
(dp23
g4
I512
sg5
I00
sg6
I6
sg7
S'VARCHAR(512)'
p24
sg9
I00
sg10
g11
ssS'x1'
p25
(dp26
g4
I512
sg5
I00
sg6
I5
sg7
S'VARCHAR(512)'
p27
sg9
I00
sg10
g11
ssg10
(dp28
g4
I512
sg5
I00
sg6
I3
sg7
S'VARCHAR(512)'
p29
sg9
I00
sg10
g11
ssS'id'
p30
(dp31
g4
I512
sg5
I00
sg6
I1
sg7
S'INT AUTO_INCREMENT NOT NULL'
p32
sg9
I00
sg10
g30
ss.