(dp1
S'hazard_id'
p2
(dp3
S'length'
p4
I512
sS'unique'
p5
I00
sS'sortable'
p6
I3
sS'sql'
p7
S'INT  , INDEX hazard_id__idx (hazard_id), FOREIGN KEY (hazard_id) REFERENCES hazard (id) ON DELETE CASCADE'
p8
sS'notnull'
p9
I00
sS'type'
p10
S'reference hazard'
p11
ssS'id'
p12
(dp13
S'sortable'
p14
I1
sS'sql'
p15
S'INT AUTO_INCREMENT NOT NULL'
p16
sS'length'
p17
I512
sS'notnull'
p18
I00
sS'unique'
p19
I00
sS'type'
p20
S'id'
p21
ssS'hazard'
p22
(dp23
g14
I3
sg15
S'INT  , INDEX hazard__idx (hazard), FOREIGN KEY (hazard) REFERENCES hazard (id) ON DELETE CASCADE'
p24
sg17
I512
sg18
I00
sg19
I00
sg20
S'reference hazard'
p25
ssS'chemindex_id'
p26
(dp27
g14
I2
sg15
S'INT  , INDEX chemindex_id__idx (chemindex_id), FOREIGN KEY (chemindex_id) REFERENCES chemindex (id) ON DELETE CASCADE'
p28
sg17
I512
sg18
I00
sg19
I00
sg20
S'reference chemindex'
p29
ss.