(dp1
S'profile'
p2
(dp3
S'sortable'
p4
I7
sS'sql'
p5
S'VARCHAR(512)'
p6
sS'length'
p7
I512
sS'notnull'
p8
I00
sS'unique'
p9
I00
sS'type'
p10
S'string'
p11
ssS'ccontentscomposition'
p12
(dp13
S'sortable'
p14
I22
sS'sql'
p15
S'VARCHAR(512)'
p16
sS'length'
p17
I512
sS'notnull'
p18
I00
sS'unique'
p19
I00
sS'type'
p20
S'string'
p21
ssS'psn'
p22
(dp23
S'sortable'
p24
I2
sS'sql'
p25
S'INT  , INDEX PSN__idx (PSN), FOREIGN KEY (PSN) REFERENCES PSN (id) ON DELETE CASCADE'
p26
sS'length'
p27
I512
sS'notnull'
p28
I00
sS'unique'
p29
I00
sS'type'
p30
S'reference PSN'
p31
ssS'containersize'
p32
(dp33
S'sortable'
p34
I13
sS'sql'
p35
S'VARCHAR(512)'
p36
sS'length'
p37
I512
sS'notnull'
p38
I00
sS'unique'
p39
I00
sS'type'
p40
S'string'
p41
ssS'chemweight'
p42
(dp43
S'sortable'
p44
I5
sS'sql'
p45
S'NUMERIC(65,2)'
p46
sS'length'
p47
I512
sS'notnull'
p48
I00
sS'unique'
p49
I00
sS'type'
p50
S'decimal(65,2)'
p51
ssS'psndescriptor'
p52
(dp53
S'sortable'
p54
I30
sS'sql'
p55
S'VARCHAR(512)'
p56
sS'length'
p57
I512
sS'notnull'
p58
I00
sS'unique'
p59
I00
sS'type'
p60
S'string'
p61
ssS'cstatefedwastecode'
p62
(dp63
S'sortable'
p64
I18
sS'sql'
p65
S'LONGTEXT'
p66
sS'length'
p67
I512
sS'notnull'
p68
I00
sS'unique'
p69
I00
sS'type'
p70
S'list:string'
p71
ssS'ccawastecode'
p72
(dp73
S'sortable'
p74
I17
sS'sql'
p75
S'VARCHAR(512)'
p76
sS'length'
p77
I512
sS'notnull'
p78
I00
sS'unique'
p79
I00
sS'type'
p80
S'string'
p81
ssS'unna'
p82
(dp83
S'sortable'
p84
I25
sS'sql'
p85
S'INT  , INDEX UNNA__idx (UNNA), FOREIGN KEY (UNNA) REFERENCES UNNA (id) ON DELETE CASCADE'
p86
sS'length'
p87
I512
sS'notnull'
p88
I00
sS'unique'
p89
I00
sS'type'
p90
S'reference UNNA'
p91
ssS'technicalname'
p92
(dp93
S'sortable'
p94
I27
sS'sql'
p95
S'VARCHAR(512)'
p96
sS'length'
p97
I512
sS'notnull'
p98
I00
sS'unique'
p99
I00
sS'type'
p100
S'string'
p101
ssS'contnum'
p102
(dp103
S'sortable'
p104
I2
sS'sql'
p105
S'VARCHAR(512)'
p106
sS'length'
p107
I512
sS'notnull'
p108
I00
sS'unique'
p109
I00
sS'type'
p110
S'string'
p111
ssS'containertype'
p112
(dp113
S'sortable'
p114
I12
sS'sql'
p115
S'INT  , INDEX containertype__idx (containertype), FOREIGN KEY (containertype) REFERENCES containertype (id) ON DELETE CASCADE'
p116
sS'length'
p117
I512
sS'notnull'
p118
I00
sS'unique'
p119
I00
sS'type'
p120
S'reference containertype'
p121
ssS'closedate'
p122
(dp123
S'sortable'
p124
I4
sS'sql'
p125
S'DATE'
p126
sS'length'
p127
I512
sS'notnull'
p128
I00
sS'unique'
p129
I00
sS'type'
p130
S'date'
p131
ssS'accumulationstartdate'
p132
(dp133
S'sortable'
p134
I6
sS'sql'
p135
S'DATE'
p136
sS'length'
p137
I512
sS'notnull'
p138
I00
sS'unique'
p139
I00
sS'type'
p140
S'date'
p141
ssS'containervolume'
p142
(dp143
S'sortable'
p144
I14
sS'sql'
p145
S'INT'
p146
sS'length'
p147
I512
sS'notnull'
p148
I00
sS'unique'
p149
I00
sS'type'
p150
S'integer'
p151
ssS'id'
p152
(dp153
S'sortable'
p154
I1
sS'sql'
p155
S'INT AUTO_INCREMENT NOT NULL'
p156
sS'length'
p157
I512
sS'notnull'
p158
I00
sS'unique'
p159
I00
sS'type'
p160
S'id'
p161
ssS'cdisposalcode'
p162
(dp163
S'sortable'
p164
I7
sS'sql'
p165
S'VARCHAR(512)'
p166
sS'length'
p167
I512
sS'notnull'
p168
I00
sS'unique'
p169
I00
sS'type'
p170
S'string'
p171
ssS'rq'
p172
(dp173
S'sortable'
p174
I24
sS'sql'
p175
S'CHAR(1)'
p176
sS'length'
p177
I512
sS'notnull'
p178
I00
sS'unique'
p179
I00
sS'type'
p180
S'boolean'
p181
ssS'containerstyle'
p182
(dp183
S'sortable'
p184
I15
sS'sql'
p185
S'VARCHAR(512)'
p186
sS'length'
p187
I512
sS'notnull'
p188
I00
sS'unique'
p189
I00
sS'type'
p190
S'string'
p191
ssS'closedby'
p192
(dp193
S'sortable'
p194
I6
sS'sql'
p195
S'VARCHAR(512)'
p196
sS'length'
p197
I512
sS'notnull'
p198
I00
sS'unique'
p199
I00
sS'type'
p200
S'string'
p201
ssS'cstate'
p202
(dp203
S'sortable'
p204
I23
sS'sql'
p205
S'VARCHAR(512)'
p206
sS'length'
p207
I512
sS'notnull'
p208
I00
sS'unique'
p209
I00
sS'type'
p210
S'string'
p211
ssS'containerconstruction'
p212
(dp213
S'length'
p214
I512
sS'unique'
p215
I00
sS'sortable'
p216
I16
sS'sql'
p217
S'VARCHAR(512)'
p218
sS'notnull'
p219
I00
sS'type'
p220
S'string'
p221
ssS'chazardousproperties'
p222
(dp223
S'sortable'
p224
I24
sS'sql'
p225
S'LONGTEXT'
p226
sS'length'
p227
I512
sS'notnull'
p228
I00
sS'unique'
p229
I00
sS'type'
p230
S'list:string'
p231
ssS'cgenerator'
p232
(dp233
S'sortable'
p234
I18
sS'sql'
p235
S'INT  , INDEX cgenerator__idx (cgenerator), FOREIGN KEY (cgenerator) REFERENCES generator (id) ON DELETE CASCADE'
p236
sS'length'
p237
I512
sS'notnull'
p238
I00
sS'unique'
p239
I00
sS'type'
p240
S'reference generator'
p241
ssS'descriptor'
p242
(dp243
S'sortable'
p244
I26
sS'sql'
p245
S'VARCHAR(512)'
p246
sS'length'
p247
I512
sS'notnull'
p248
I00
sS'unique'
p249
I00
sS'type'
p250
S'string'
p251
ssS'pggroup'
p252
(dp253
g54
I29
sg55
S'VARCHAR(512)'
p254
sg57
I512
sg58
I00
sg59
I00
sg60
g61
ssS'cshipment'
p255
(dp256
g194
I7
sg195
S'INT  , INDEX cShipment__idx (cShipment), FOREIGN KEY (cShipment) REFERENCES shipment (id) ON DELETE CASCADE'
p257
sg197
I512
sg198
I00
sg199
I00
sg200
S'reference shipment'
p258
ssS'hazdivision'
p259
(dp260
g54
I28
sg55
S'VARCHAR(512)'
p261
sg57
I512
sg58
I00
sg59
I00
sg60
g61
ssS'ctsdf'
p262
(dp263
S'sortable'
p264
I8
sS'sql'
p265
S'INT  , INDEX cTSDF__idx (cTSDF), FOREIGN KEY (cTSDF) REFERENCES TSDF (id) ON DELETE CASCADE'
p266
sS'length'
p267
I512
sS'notnull'
p268
I00
sS'unique'
p269
I00
sS'type'
p270
S'reference TSDF'
p271
ssS'opendate'
p272
(dp273
g124
I3
sg125
S'DATE'
p274
sg127
I512
sg128
I00
sg129
I00
sg130
g131
ssS'grossweight'
p275
(dp276
g44
I6
sg45
S'NUMERIC(65,2)'
p277
sg47
I512
sg48
I00
sg49
I00
sg50
g51
ss.