(dp1
S'UnitsFrom'
p2
(dp3
S'length'
p4
I512
sS'unique'
p5
I00
sS'sortable'
p6
I2
sS'sql'
p7
S'INT  , INDEX UnitsFrom__idx (UnitsFrom), FOREIGN KEY (UnitsFrom) REFERENCES units (id) ON DELETE CASCADE'
p8
sS'notnull'
p9
I00
sS'type'
p10
S'reference units'
p11
ssS'ConversionFactor'
p12
(dp13
g4
I512
sg5
I00
sg6
I3
sg7
S'NUMERIC(65,10)'
p14
sg9
I00
sg10
S'decimal(65,10)'
p15
ssS'id'
p16
(dp17
g4
I512
sg5
I00
sg6
I1
sg7
S'INT AUTO_INCREMENT NOT NULL'
p18
sg9
I00
sg10
g16
ss.