(dp1
S'scabinet'
p2
(dp3
S'length'
p4
I512
sS'unique'
p5
I00
sS'sortable'
p6
I4
sS'sql'
p7
S'INT  , INDEX scabinet__idx (scabinet), FOREIGN KEY (scabinet) REFERENCES cabinet (id) ON DELETE CASCADE'
p8
sS'notnull'
p9
I00
sS'type'
p10
S'reference cabinet'
p11
ssS'disposalcode'
p12
(dp13
S'sortable'
p14
I3
sS'sql'
p15
S'VARCHAR(512)'
p16
sS'length'
p17
I512
sS'notnull'
p18
I00
sS'unique'
p19
I00
sS'type'
p20
S'string'
p21
ssS'shelfcode'
p22
(dp23
g14
I2
sg15
S'VARCHAR(512)'
p24
sg17
I512
sg18
I00
sg19
I00
sg20
g21
ssS'id'
p25
(dp26
g14
I1
sg15
S'INT AUTO_INCREMENT NOT NULL'
p27
sg17
I512
sg18
I00
sg19
I00
sg20
S'id'
p28
ss.