(dp1
S'iinputnumber'
p2
(dp3
S'sortable'
p4
I16
sS'sql'
p5
S'INT'
p6
sS'length'
p7
I512
sS'notnull'
p8
I00
sS'unique'
p9
I00
sS'type'
p10
S'integer'
p11
ssS'ipounds'
p12
(dp13
g4
I10
sg5
S'VARCHAR(512)'
p14
sg7
I512
sg8
I00
sg9
I00
sg10
S'string'
p15
ssS'iname'
p16
(dp17
S'sortable'
p18
I2
sS'sql'
p19
S'INT  , INDEX Iname__idx (Iname), FOREIGN KEY (Iname) REFERENCES chemindex (id) ON DELETE CASCADE'
p20
sS'length'
p21
I512
sS'notnull'
p22
I00
sS'unique'
p23
I00
sS'type'
p24
S'reference chemindex'
p25
ssS'idisposalcode'
p26
(dp27
g4
I3
sg5
S'VARCHAR(512)'
p28
sg7
I512
sg8
I00
sg9
I00
sg10
g15
ssS'icontainer'
p29
(dp30
S'sortable'
p31
I17
sS'sql'
p32
S'INT  , INDEX Icontainer__idx (Icontainer), FOREIGN KEY (Icontainer) REFERENCES container (id) ON DELETE CASCADE'
p33
sS'length'
p34
I512
sS'notnull'
p35
I00
sS'unique'
p36
I00
sS'type'
p37
S'reference container'
p38
ssS'iinputid'
p39
(dp40
g4
I15
sg5
S'VARCHAR(512)'
p41
sg7
I512
sg8
I00
sg9
I00
sg10
g15
ssS'icomments'
p42
(dp43
g4
I14
sg5
S'LONGTEXT'
p44
sg7
I32768
sg8
I00
sg9
I00
sg10
S'text'
p45
ssS'ireceptacle'
p46
(dp47
g4
I9
sg5
S'INT  , INDEX Ireceptacle__idx (Ireceptacle), FOREIGN KEY (Ireceptacle) REFERENCES receptacle (id) ON DELETE CASCADE'
p48
sg7
I512
sg8
I00
sg9
I00
sg10
S'reference receptacle'
p49
ssS'id'
p50
(dp51
g4
I1
sg5
S'INT AUTO_INCREMENT NOT NULL'
p52
sg7
I512
sg8
I00
sg9
I00
sg10
S'id'
p53
ssS'iamount'
p54
(dp55
g4
I6
sg5
S'NUMERIC(65,2)'
p56
sg7
I512
sg8
I00
sg9
I00
sg10
S'decimal(65,2)'
p57
ssS'iunits'
p58
(dp59
g4
I7
sg5
S'INT  , INDEX Iunits__idx (Iunits), FOREIGN KEY (Iunits) REFERENCES units (id) ON DELETE CASCADE'
p60
sg7
I512
sg8
I00
sg9
I00
sg10
S'reference units'
p61
ssS'icapacity'
p62
(dp63
g4
I8
sg5
S'INT'
p64
sg7
I512
sg8
I00
sg9
I00
sg10
g11
ssS'icondition'
p65
(dp66
S'sortable'
p67
I4
sS'sql'
p68
S'INT  , INDEX Icondition__idx (Icondition), FOREIGN KEY (Icondition) REFERENCES conditionlist (id) ON DELETE CASCADE'
p69
sS'length'
p70
I512
sS'notnull'
p71
I00
sS'unique'
p72
I00
sS'type'
p73
S'reference conditionlist'
p74
ssS'istate'
p75
(dp76
S'length'
p77
I512
sS'unique'
p78
I00
sS'sortable'
p79
I5
sS'sql'
p80
S'VARCHAR(512)'
p81
sS'notnull'
p82
I00
sS'type'
p83
S'string'
p84
ssS'imixture'
p85
(dp86
g4
I13
sg5
S'LONGTEXT'
p87
sg7
I32768
sg8
I00
sg9
I00
sg10
g45
ssS'ihazwastecodes'
p88
(dp89
g4
I11
sg5
S'VARCHAR(512)'
p90
sg7
I512
sg8
I00
sg9
I00
sg10
g15
ssS'iquantity'
p91
(dp92
S'sortable'
p93
I9
sS'sql'
p94
S'INT'
p95
sS'length'
p96
I512
sS'notnull'
p97
I00
sS'unique'
p98
I00
sS'type'
p99
S'integer'
p100
ssS'ishelf'
p101
(dp102
S'sortable'
p103
I18
sS'sql'
p104
S'INT  , INDEX Ishelf__idx (Ishelf), FOREIGN KEY (Ishelf) REFERENCES shelf (id) ON DELETE CASCADE'
p105
sS'length'
p106
I512
sS'notnull'
p107
I00
sS'unique'
p108
I00
sS'type'
p109
S'reference shelf'
p110
ssS'icomponents'
p111
(dp112
g4
I12
sg5
S'LONGTEXT'
p113
sg7
I32768
sg8
I00
sg9
I00
sg10
g45
ss.