(dp1
S'hazard_id'
p2
(dp3
S'length'
p4
I512
sS'unique'
p5
I00
sS'sortable'
p6
I3
sS'sql'
p7
S'INT  , INDEX hazard_id__idx (hazard_id), FOREIGN KEY (hazard_id) REFERENCES hazard (id) ON DELETE CASCADE'
p8
sS'notnull'
p9
I00
sS'type'
p10
S'reference hazard'
p11
ssS'hazard_string'
p12
(dp13
g4
I512
sg5
I00
sg6
I4
sg7
S'VARCHAR(512)'
p14
sg9
I00
sg10
S'string'
p15
ssS'id'
p16
(dp17
g4
I512
sg5
I00
sg6
I1
sg7
S'INT AUTO_INCREMENT NOT NULL'
p18
sg9
I00
sg10
g16
ssS'chemindex_id'
p19
(dp20
g4
I512
sg5
I00
sg6
I2
sg7
S'INT  , INDEX chemindex_id__idx (chemindex_id), FOREIGN KEY (chemindex_id) REFERENCES chemindex (id) ON DELETE CASCADE'
p21
sg9
I00
sg10
S'reference chemindex'
p22
ss.