(dp1
S'treatmentname'
p2
(dp3
S'length'
p4
I512
sS'unique'
p5
I00
sS'sortable'
p6
I2
sS'sql'
p7
S'VARCHAR(512)'
p8
sS'notnull'
p9
I00
sS'type'
p10
S'string'
p11
ssS'treatnameabbrev'
p12
(dp13
g4
S'10'
p14
sg5
I00
sg6
I4
sg7
S'VARCHAR(10)'
p15
sg9
I00
sg10
g11
ssS'id'
p16
(dp17
g4
I512
sg5
I00
sg6
I1
sg7
S'INT AUTO_INCREMENT NOT NULL'
p18
sg9
I00
sg10
g16
ssS'treatmentcode'
p19
(dp20
g4
S'4'
sg5
I00
sg6
I3
sg7
S'VARCHAR(4)'
p21
sg9
I00
sg10
g11
ss.