(dp1
S'ccasnum'
p2
(dp3
S'sortable'
p4
I4
sS'sql'
p5
S'VARCHAR(512)'
p6
sS'length'
p7
I512
sS'notnull'
p8
I00
sS'unique'
p9
I00
sS'type'
p10
S'string'
p11
ssS'cgroup'
p12
(dp13
g4
I5
sg5
S'VARCHAR(512)'
p14
sg7
I512
sg8
I00
sg9
I00
sg10
g11
ssS'cstatefedwastecode'
p15
(dp16
S'sortable'
p17
I15
sS'sql'
p18
S'LONGTEXT'
p19
sS'length'
p20
I512
sS'notnull'
p21
I00
sS'unique'
p22
I00
sS'type'
p23
S'list:string'
p24
ssS'ctreatment'
p25
(dp26
g4
I9
sg5
S'INT  , INDEX cTreatment__idx (cTreatment), FOREIGN KEY (cTreatment) REFERENCES Treatment (id) ON DELETE CASCADE'
p27
sg7
I512
sg8
I00
sg9
I00
sg10
S'reference Treatment'
p28
ssS'unna'
p29
(dp30
S'length'
p31
I512
sS'unique'
p32
I00
sS'sortable'
p33
I18
sS'sql'
p34
S'INT  , INDEX unna__idx (unna), FOREIGN KEY (unna) REFERENCES UNNA (id) ON DELETE CASCADE'
p35
sS'notnull'
p36
I00
sS'type'
p37
S'reference UNNA'
p38
ssS'chazwastecodes'
p39
(dp40
g4
I10
sg5
S'VARCHAR(512)'
p41
sg7
I512
sg8
I00
sg9
I00
sg10
g11
ssS'cmolecularformula'
p42
(dp43
g4
I11
sg5
S'VARCHAR(512)'
p44
sg7
I512
sg8
I00
sg9
I00
sg10
g11
ssS'cprefix'
p45
(dp46
g4
I3
sg5
S'VARCHAR(512)'
p47
sg7
I512
sg8
I00
sg9
I00
sg10
g11
ssS'chazard'
p48
(dp49
S'sortable'
p50
I12
sS'sql'
p51
S'LONGTEXT'
p52
sS'length'
p53
I512
sS'notnull'
p54
I00
sS'unique'
p55
I00
sS'type'
p56
S'list:string'
p57
ssS'id'
p58
(dp59
g4
I1
sg5
S'INT AUTO_INCREMENT NOT NULL'
p60
sg7
I512
sg8
I00
sg9
I00
sg10
S'id'
p61
ssS'cdotpsn'
p62
(dp63
S'sortable'
p64
I12
sS'sql'
p65
S'CHAR(1)'
p66
sS'length'
p67
I512
sS'notnull'
p68
I00
sS'unique'
p69
I00
sS'type'
p70
S'boolean'
p71
ssS'cstate'
p72
(dp73
S'sortable'
p74
I6
sS'sql'
p75
S'VARCHAR(512)'
p76
sS'length'
p77
I512
sS'notnull'
p78
I00
sS'unique'
p79
I00
sS'type'
p80
S'string'
p81
ssS'comments'
p82
(dp83
S'sortable'
p84
I17
sS'sql'
p85
S'LONGTEXT'
p86
sS'length'
p87
I32768
sS'notnull'
p88
I00
sS'unique'
p89
I00
sS'type'
p90
S'text'
p91
ssS'cname'
p92
(dp93
g4
I2
sg5
S'VARCHAR(512)'
p94
sg7
I512
sg8
I00
sg9
I00
sg10
g11
ssS'pg'
p95
(dp96
g31
I512
sg32
I00
sg33
I19
sg34
S'VARCHAR(512)'
p97
sg36
I00
sg37
S'string'
p98
ssS'components'
p99
(dp100
S'sortable'
p101
I16
sS'sql'
p102
S'LONGTEXT'
p103
sS'length'
p104
I32768
sS'notnull'
p105
I00
sS'unique'
p106
I00
sS'type'
p107
S'text'
p108
ssS'ctsdf'
p109
(dp110
g4
I8
sg5
S'INT  , INDEX cTSDF__idx (cTSDF), FOREIGN KEY (cTSDF) REFERENCES TSDF (id) ON DELETE CASCADE'
p111
sg7
I512
sg8
I00
sg9
I00
sg10
S'reference TSDF'
p112
ssS'cpacktype'
p113
(dp114
S'sortable'
p115
I9
sS'sql'
p116
S'VARCHAR(512)'
p117
sS'length'
p118
I512
sS'notnull'
p119
I00
sS'unique'
p120
I00
sS'type'
p121
S'string'
p122
ssS'cdisposalcode'
p123
(dp124
g4
I7
sg5
S'VARCHAR(512)'
p125
sg7
I512
sg8
I00
sg9
I00
sg10
g11
ss.