(dp1
S'unna'
p2
(dp3
S'sortable'
p4
I3
sS'sql'
p5
S'VARCHAR(512)'
p6
sS'length'
p7
I512
sS'notnull'
p8
I00
sS'unique'
p9
I00
sS'type'
p10
S'string'
p11
ssS'name'
p12
(dp13
S'length'
p14
I512
sS'unique'
p15
I00
sS'sortable'
p16
I2
sS'sql'
p17
S'VARCHAR(512)'
p18
sS'notnull'
p19
I00
sS'type'
p20
S'string'
p21
ssS'id'
p22
(dp23
S'sortable'
p24
I1
sS'sql'
p25
S'INT AUTO_INCREMENT NOT NULL'
p26
sS'length'
p27
I512
sS'notnull'
p28
I00
sS'unique'
p29
I00
sS'type'
p30
S'id'
p31
ss.