(dp1
S'cabinetcode'
p2
(dp3
S'length'
p4
I512
sS'unique'
p5
I00
sS'sortable'
p6
I3
sS'sql'
p7
S'INT  , INDEX cabinetcode__idx (cabinetcode), FOREIGN KEY (cabinetcode) REFERENCES hazard (id) ON DELETE CASCADE'
p8
sS'notnull'
p9
I00
sS'type'
p10
S'reference hazard'
p11
ssS'id'
p12
(dp13
S'sortable'
p14
I1
sS'sql'
p15
S'INT AUTO_INCREMENT NOT NULL'
p16
sS'length'
p17
I512
sS'notnull'
p18
I00
sS'unique'
p19
I00
sS'type'
p20
S'id'
p21
ssS'name'
p22
(dp23
S'sortable'
p24
I2
sS'sql'
p25
S'VARCHAR(512)'
p26
sS'length'
p27
I512
sS'notnull'
p28
I00
sS'unique'
p29
I00
sS'type'
p30
S'string'
p31
ss.