(dp1
S'nonrcra'
p2
(dp3
S'sortable'
p4
I27
sS'sql'
p5
S'CHAR(1)'
p6
sS'length'
p7
I512
sS'notnull'
p8
I00
sS'unique'
p9
I00
sS'type'
p10
S'boolean'
p11
ssS'casnum'
p12
(dp13
S'sortable'
p14
I6
sS'sql'
p15
S'CHAR(512)'
p16
sS'length'
p17
I512
sS'notnull'
p18
I00
sS'unique'
p19
I00
sS'type'
p20
S'string'
p21
ssS'cmolecularformula'
p22
(dp23
S'length'
p24
I512
sS'unique'
p25
I00
sS'sortable'
p26
I10
sS'sql'
p27
S'CHAR(512)'
p28
sS'notnull'
p29
I00
sS'type'
p30
S'string'
p31
ssS'corrosivebase'
p32
(dp33
g4
I20
sg5
S'CHAR(1)'
p34
sg7
I512
sg8
I00
sg9
I00
sg10
g11
ssS'ctreatment'
p35
(dp36
g24
I512
sg25
I00
sg26
I9
sg27
S'INTEGER REFERENCES Treatment (id) ON DELETE CASCADE  '
p37
sg29
I00
sg30
S'reference Treatment'
p38
ssS'sulfide'
p39
(dp40
g4
I24
sg5
S'CHAR(1)'
p41
sg7
I512
sg8
I00
sg9
I00
sg10
g11
ssS'chemsuffix'
p42
(dp43
g14
I5
sg15
S'CHAR(512)'
p44
sg17
I512
sg18
I00
sg19
I00
sg20
g21
ssS'fixedshippingname'
p45
(dp46
g4
I30
sg5
S'CHAR(1)'
p47
sg7
I512
sg8
I00
sg9
I00
sg10
g11
ssS'id'
p48
(dp49
g24
I512
sg25
I00
sg26
I1
sg27
S'INTEGER PRIMARY KEY AUTOINCREMENT'
p50
sg29
I00
sg30
S'id'
p51
ssS'stench'
p52
(dp53
g4
I25
sg5
S'CHAR(1)'
p54
sg7
I512
sg8
I00
sg9
I00
sg10
g11
ssS'corrosiveacid'
p55
(dp56
g4
I19
sg5
S'CHAR(1)'
p57
sg7
I512
sg8
I00
sg9
I00
sg10
g11
ssS'chemname'
p58
(dp59
g14
I2
sg15
S'CHAR(512)'
p60
sg17
I512
sg18
I00
sg19
I00
sg20
g21
ssS'cdisposalcode'
p61
(dp62
g24
I512
sg25
I00
sg26
I5
sg27
S'CHAR(512)'
p63
sg29
I00
sg30
g31
ssS'cstate'
p64
(dp65
g24
I512
sg25
I00
sg26
I7
sg27
S'CHAR(512)'
p66
sg29
I00
sg30
g31
ssS'controlledsubsance'
p67
(dp68
S'sortable'
p69
I32
sS'sql'
p70
S'INTEGER'
p71
sS'length'
p72
I512
sS'notnull'
p73
I00
sS'unique'
p74
I00
sS'type'
p75
S'integer'
p76
ssS'chazclass'
p77
(dp78
S'sortable'
p79
I11
sS'sql'
p80
S'CHAR(512)'
p81
sS'length'
p82
I512
sS'notnull'
p83
I00
sS'unique'
p84
I00
sS'type'
p85
S'string'
p86
ssS'oxidizer'
p87
(dp88
g4
I17
sg5
S'CHAR(1)'
p89
sg7
I512
sg8
I00
sg9
I00
sg10
g11
ssS'class9'
p90
(dp91
g4
I26
sg5
S'CHAR(1)'
p92
sg7
I512
sg8
I00
sg9
I00
sg10
g11
ssS'toxic'
p93
(dp94
g4
I21
sg5
S'CHAR(1)'
p95
sg7
I512
sg8
I00
sg9
I00
sg10
g11
ssS'ctsdf'
p96
(dp97
g24
I512
sg25
I00
sg26
I8
sg27
S'INTEGER REFERENCES TSDF (id) ON DELETE CASCADE  '
p98
sg29
I00
sg30
S'reference TSDF'
p99
ssS'ccasnum'
p100
(dp101
g24
I512
sg25
I00
sg26
I4
sg27
S'CHAR(512)'
p102
sg29
I00
sg30
g31
ssS'cradioactive'
p103
(dp104
S'sortable'
p105
I11
sS'sql'
p106
S'CHAR(1)'
p107
sS'length'
p108
I512
sS'notnull'
p109
I00
sS'unique'
p110
I00
sS'type'
p111
S'boolean'
p112
ssS'chemstate'
p113
(dp114
g14
I9
sg15
S'CHAR(512)'
p115
sg17
I512
sg18
I00
sg19
I00
sg20
g21
ssS'explosive'
p116
(dp117
g4
I12
sg5
S'CHAR(1)'
p118
sg7
I512
sg8
I00
sg9
I00
sg10
g11
ssS'combustible'
p119
(dp120
g4
I22
sg5
S'CHAR(1)'
p121
sg7
I512
sg8
I00
sg9
I00
sg10
g11
ssS'cmidfix'
p122
(dp123
S'sortable'
p124
I4
sS'sql'
p125
S'CHAR(512)'
p126
sS'length'
p127
I512
sS'notnull'
p128
I00
sS'unique'
p129
I00
sS'type'
p130
S'string'
p131
ssS'hazard'
p132
(dp133
g14
I33
sg15
S'CHAR(512)'
p134
sg17
I512
sg18
I00
sg19
I00
sg20
g21
ssS'reactivepyrophoric'
p135
(dp136
g4
I14
sg5
S'CHAR(1)'
p137
sg7
I512
sg8
I00
sg9
I00
sg10
g11
ssS'cprefix'
p138
(dp139
g24
I512
sg25
I00
sg26
I3
sg27
S'CHAR(512)'
p140
sg29
I00
sg30
g31
ssS'chazard'
p141
(dp142
g24
I512
sg25
I00
sg26
I11
sg27
S'TEXT'
p143
sg29
I00
sg30
S'list:reference chemindex'
p144
ssS'combustiblegas'
p145
(dp146
g4
I13
sg5
S'CHAR(1)'
p147
sg7
I512
sg8
I00
sg9
I00
sg10
g11
ssS'controlledsubstance'
p148
(dp149
g4
I32
sg5
S'INTEGER'
p150
sg7
I512
sg8
I00
sg9
I00
sg10
S'integer'
p151
ssS'dangerouswhenwet'
p152
(dp153
g4
I15
sg5
S'CHAR(1)'
p154
sg7
I512
sg8
I00
sg9
I00
sg10
g11
ssS'universalwaste'
p155
(dp156
g4
I31
sg5
S'CHAR(1)'
p157
sg7
I512
sg8
I00
sg9
I00
sg10
g11
ssS'hazclass'
p158
(dp159
g14
I10
sg15
S'CHAR(512)'
p160
sg17
I512
sg18
I00
sg19
I00
sg20
g21
ssS'organicperoxide'
p161
(dp162
g4
I18
sg5
S'CHAR(1)'
p163
sg7
I512
sg8
I00
sg9
I00
sg10
g11
ssS'chemprefix'
p164
(dp165
g14
I3
sg15
S'CHAR(512)'
p166
sg17
I512
sg18
I00
sg19
I00
sg20
g21
ssS'flammable'
p167
(dp168
g4
I16
sg5
S'CHAR(1)'
p169
sg7
I512
sg8
I00
sg9
I00
sg10
g11
ssS'molecularformula'
p170
(dp171
g14
I7
sg15
S'CHAR(512)'
p172
sg17
I512
sg18
I00
sg19
I00
sg20
g21
ssS'radioactive'
p173
(dp174
g14
I11
sg15
S'CHAR(1)'
p175
sg17
I512
sg18
I00
sg19
I00
sg20
S'boolean'
p176
ssS'chemmidfix'
p177
(dp178
g14
I4
sg15
S'CHAR(512)'
p179
sg17
I512
sg18
I00
sg19
I00
sg20
g21
ssS'sp'
p180
(dp181
S'sortable'
p182
I29
sS'sql'
p183
S'CHAR(1)'
p184
sS'length'
p185
I512
sS'notnull'
p186
I00
sS'unique'
p187
I00
sS'type'
p188
S'boolean'
p189
ssS'specialhandling'
p190
(dp191
g4
I29
sg5
S'CHAR(1)'
p192
sg7
I512
sg8
I00
sg9
I00
sg10
g11
ssS'cname'
p193
(dp194
g24
I512
sg25
I00
sg26
I2
sg27
S'CHAR(512)'
p195
sg29
I00
sg30
g31
ssS'nonhazardous'
p196
(dp197
g4
I28
sg5
S'CHAR(1)'
p198
sg7
I512
sg8
I00
sg9
I00
sg10
g11
ssS'chemgroup'
p199
(dp200
g14
I8
sg15
S'CHAR(512)'
p201
sg17
I512
sg18
I00
sg19
I00
sg20
g21
ssS'cgroup'
p202
(dp203
g24
I512
sg25
I00
sg26
I6
sg27
S'CHAR(512)'
p204
sg29
I00
sg30
g31
ssS'cyanide'
p205
(dp206
g4
I23
sg5
S'CHAR(1)'
p207
sg7
I512
sg8
I00
sg9
I00
sg10
g11
ssS'csuffix'
p208
(dp209
g124
I5
sg125
S'CHAR(512)'
p210
sg127
I512
sg128
I00
sg129
I00
sg130
g131
ss.