(dp1
S'hazard_id'
p2
(dp3
S'length'
p4
I512
sS'unique'
p5
I00
sS'sortable'
p6
I3
sS'sql'
p7
S'INTEGER REFERENCES hazard (id) ON DELETE CASCADE  '
p8
sS'notnull'
p9
I00
sS'type'
p10
S'reference hazard'
p11
ssS'hazard_string'
p12
(dp13
g4
I512
sg5
I00
sg6
I4
sg7
S'CHAR(512)'
p14
sg9
I00
sg10
S'string'
p15
ssS'id'
p16
(dp17
g4
I512
sg5
I00
sg6
I1
sg7
S'INTEGER PRIMARY KEY AUTOINCREMENT'
p18
sg9
I00
sg10
S'id'
p19
ssS'chemindex_id'
p20
(dp21
g4
I512
sg5
I00
sg6
I2
sg7
S'INTEGER REFERENCES chemindex (id) ON DELETE CASCADE  '
p22
sg9
I00
sg10
S'reference chemindex'
p23
ss.