(dp1
S'nonrcra'
p2
(dp3
S'sortable'
p4
I19
sS'sql'
p5
S'CHAR(1)'
p6
sS'length'
p7
I512
sS'notnull'
p8
I00
sS'unique'
p9
I00
sS'type'
p10
S'boolean'
p11
ssS'organicperoxide'
p12
(dp13
g4
I10
sg5
S'CHAR(1)'
p14
sg7
I512
sg8
I00
sg9
I00
sg10
g11
ssS'hazardname'
p15
(dp16
S'length'
p17
I512
sS'unique'
p18
I00
sS'sortable'
p19
I2
sS'sql'
p20
S'CHAR(512)'
p21
sS'notnull'
p22
I00
sS'type'
p23
S'string'
p24
ssS'explosive'
p25
(dp26
g4
I4
sg5
S'CHAR(1)'
p27
sg7
I512
sg8
I00
sg9
I00
sg10
g11
ssS'combustible'
p28
(dp29
g4
I14
sg5
S'CHAR(1)'
p30
sg7
I512
sg8
I00
sg9
I00
sg10
g11
ssS'reactivepyrophoric'
p31
(dp32
g4
I6
sg5
S'CHAR(1)'
p33
sg7
I512
sg8
I00
sg9
I00
sg10
g11
ssS'cyanide'
p34
(dp35
g4
I15
sg5
S'CHAR(1)'
p36
sg7
I512
sg8
I00
sg9
I00
sg10
g11
ssS'sulfide'
p37
(dp38
g4
I16
sg5
S'CHAR(1)'
p39
sg7
I512
sg8
I00
sg9
I00
sg10
g11
ssS'fixedshippingname'
p40
(dp41
g4
I22
sg5
S'CHAR(1)'
p42
sg7
I512
sg8
I00
sg9
I00
sg10
g11
ssS'combustiblegas'
p43
(dp44
g4
I5
sg5
S'CHAR(1)'
p45
sg7
I512
sg8
I00
sg9
I00
sg10
g11
ssS'controlledsubstance'
p46
(dp47
g4
I24
sg5
S'INTEGER'
p48
sg7
I512
sg8
I00
sg9
I00
sg10
S'integer'
p49
ssS'corrosivebase'
p50
(dp51
g4
I12
sg5
S'CHAR(1)'
p52
sg7
I512
sg8
I00
sg9
I00
sg10
g11
ssS'id'
p53
(dp54
g17
I512
sg18
I00
sg19
I1
sg20
S'INTEGER PRIMARY KEY AUTOINCREMENT'
p55
sg22
I00
sg23
S'id'
p56
ssS'stench'
p57
(dp58
g4
I17
sg5
S'CHAR(1)'
p59
sg7
I512
sg8
I00
sg9
I00
sg10
g11
ssS'corrosiveacid'
p60
(dp61
g4
I11
sg5
S'CHAR(1)'
p62
sg7
I512
sg8
I00
sg9
I00
sg10
g11
ssS'flammable'
p63
(dp64
g4
I8
sg5
S'CHAR(1)'
p65
sg7
I512
sg8
I00
sg9
I00
sg10
g11
ssS'dangerouswhenwet'
p66
(dp67
g4
I7
sg5
S'CHAR(1)'
p68
sg7
I512
sg8
I00
sg9
I00
sg10
g11
ssS'hazardorder'
p69
(dp70
g17
I512
sg18
I00
sg19
I3
sg20
S'INTEGER'
p71
sg22
I00
sg23
S'integer'
p72
ssS'specialhandling'
p73
(dp74
g4
I21
sg5
S'CHAR(1)'
p75
sg7
I512
sg8
I00
sg9
I00
sg10
g11
ssS'universalwaste'
p76
(dp77
g4
I23
sg5
S'CHAR(1)'
p78
sg7
I512
sg8
I00
sg9
I00
sg10
g11
ssS'nonhazardous'
p79
(dp80
g4
I20
sg5
S'CHAR(1)'
p81
sg7
I512
sg8
I00
sg9
I00
sg10
g11
ssS'oxidizer'
p82
(dp83
g4
I9
sg5
S'CHAR(1)'
p84
sg7
I512
sg8
I00
sg9
I00
sg10
g11
ssS'class9'
p85
(dp86
g4
I18
sg5
S'CHAR(1)'
p87
sg7
I512
sg8
I00
sg9
I00
sg10
g11
ssS'toxic'
p88
(dp89
g4
I13
sg5
S'CHAR(1)'
p90
sg7
I512
sg8
I00
sg9
I00
sg10
g11
ss.