(dp1
S'output'
p2
S"<type 'exceptions.KeyError'> "
p3
sS'layer'
p4
S'/Users/byoung/Desktop/web2py/web2py.app/Contents/Resources/applications/chemwastepro/controllers/inventory.py'
p5
sS'code'
p6
S'# -*- coding: utf-8 -*-\n# try something like\nfrom gluon.custom_import import track_changes; track_changes(True)\nfrom cwp_htmlhelpers import cwpeditlink\n\ndef index():\n    PageHeader = ""\n    #grid = SQLFORM.grid(db.item)\n\n    return dict(PageHeader=PageHeader,grid=grid)\nimport json\ndef item():\n    PageHeader = "Item"\n    #enterbutton = """<button onclick="document.location=\\""""+URL("admin","default","design", args=request.application)+""">admin</button>"""\n    addbutton = """<a href ="""+URL("inventory","itemedit")+""" class="btn btn-block btn-success">Add </a>"""\n   \n  \n    \n    #icon="""<div class="col-md-3 col-sm-4">"""+"""<a href="""+URL(\'inventory\',\'itemedit\')+"""/%s><i class="fa fa-fw fa-edit"></i></div></a>"""\n    #editlink=""" <a href="""+URL(\'inventory\',\'containeredit\')+""""class=\\"fa fa-fw fa-edit\\">Edit</%s>"""\n    editlink = """<a href ="""+URL("inventory","itemedit")+"""/%s class="fa fa-fw fa-edit"></a>"""\n    #editlink="""<a href="""+URL(\'inventory\',\'containeredit\')+"""/%s><div class="col-md-3 col-sm-4"><i class="fa fa-fw fa-edit"></i></div></a>"""\n    #datatables\n    #http://www.pyguy.com/web2py/web2py-tutorial-using-the-datatable-jquery-grid-plugin-with-web2py/\n    #Cannot use this:\n    #item = json.dumps(db(db.item).select().as_list())\n    #Because we need the represented value, like "chemical Name"\n    #So we do this:\n    rows = db(db.item.id>0).select()\n    item = json.dumps([dict(id=r.id,Iname=r.Iname,Idisposalcode=r.Idisposalcode,Ipounds=r.Ipounds,Icontainer=r.Icontainer,Ishelf=r.Ishelf,editlink=editlink  % r.id) for r in rows.render()])#adding render to use represented view of fields\n\n    return dict(PageHeader=PageHeader,addbutton=XML(addbutton),results=XML(item))\n\n\ndef itemedit():\n    PageHeader = "Item"\n    cancelbutton = XML( """<a href ="""+URL("inventory","item")+""" class="btn btn-block btn-warning">Cancel </a>""")\n    fields=[\'Iname\', \'Iquantity\', \'Ireceptacle\', \'Icondition\', \'Icapacity\', \'Iamount\', \'Iunits\', \'Icomponents\', \'Icomments\', \'Icontainer\', \'Ishelf\']\n    if (request.args(0)): #UPDATE RECORD or INSERT RECORD\n        record = db.item(request.args(0)) or redirect(URL(\'error\'))\n        disposalcode = record.Idisposalcode #<<<<TODO Add onchange event\n        form = SQLFORM(db.item, record,fields=fields)\n    else:\n        form = SQLFORM(db.item,fields=fields)\n        disposalcode  = \'\'\n    form.add_button(\'Back\', URL(\'other_page\'))\n    #disposalcode = record.Idisposalcode #<<<<TODO Add onchange event\n    #Eplicitly list fields. When using {{=form.custom.widget.Ireceptacle}}, it will only show and edit listed fields\n    #By restricting edit fields, you avoid errors\n    #form = SQLFORM(db.item, record,fields=fields)\n\n    if form.process().accepted:\n       response.flash = \'form accepted\'\n       try:\n            record.update_record(**dict(form.vars))#record is updated\n            redirect(URL(\'item\'))\n       except NameError:\n            response.flash = \'record added\'\n            redirect(URL(\'item\'))\n    elif form.errors:\n       redirect(URL(form.errors))\n       response.flash = \'form has errors\'\n\n\n    return dict(PageHeader=PageHeader,cancelbutton=cancelbutton,form=form,disposalcode=disposalcode)\n\ndef container():\n    PageHeader = "Container"\n    rows = db(db.container.id>0).select()\n    #icon="""<a href="""+URL(\'inventory\',\'containeredit\')+"""/%s><div class="col-md-3 col-sm-4"><i class="fa fa-fw fa-edit"></i></div></a>"""\n    addbutton = """<a href ="""+URL("inventory","containeredit")+""" class="btn btn-block btn-success">Add </a>"""\n    editlink = """<a href ="""+URL("inventory","containeredit")+"""/%s class="fa fa-fw fa-edit"></a>"""\n    container = json.dumps([dict(id=r.id,contnum=r.contnum,PSN=r.PSN,OpenDate=str(r.OpenDate),CloseDate=str(r.CloseDate),cdisposalcode=r.cdisposalcode,cShipment=r.cShipment,editlink=editlink  % r.id) for r in rows.render()])#adding render to use represented view of fields\n    #form = SQLFORM(db.shipment,editable=True,)\n\n    return dict(PageHeader=PageHeader,addbutton=XML(addbutton),results=XML(container))\n\ndef containeredit():\n    cancelbutton = XML( """<a href ="""+URL("inventory","container")+""" class="btn btn-block btn-warning">Cancel </a>""")\n    fields=[\'PSN\', \'OpenDate\', \'CloseDate\', \'Chemweight\', \'grossweight\', \'cdisposalcode\', \'Profile\', \'tsdf\', \'containertype\', \'containersize\', \'containerstyle\',\'containervolume\',\'containerconstruction\',\'ClosedBy\',\'cShipment\',\'cgenerator\',\'cCAwastecode\',\'cstatefedwastecode\',\'AccumulationStartDate\',\'ccontentscomposition\',\'cstate\', \'chazardousproperties\',\'RQ\',\'UNNA\',\'Descriptor\',\'TechnicalName\',\'HazDivision\',\'PGgroup\',\'PSNdescriptor\',\'contnum\']\n    if (request.args(0)): #UPDATE RECORD\n        record = db.container(request.args(0)) or redirect(URL(\'error\'))\n        form = SQLFORM(db.container, record,fields=fields)\n    else: #or INSERT RECORD\n        form = SQLFORM(db.container,fields=fields)\n    form.add_button(\'Back\', URL(\'other_page\'))\n    #process form\n    if form.process().accepted:\n       response.flash = \'form accepted\'\n       try:\n            record.update_record(**dict(form.vars))#record is updated\n            redirect(URL(\'container\'))\n       except NameError:\n            response.flash = \'record added\'\n            redirect(URL(\'container\'))\n    elif form.errors:\n       redirect(URL(form.errors))\n       response.flash = \'form has errors\'\n        \n        \n        \n       \n    return dict(form=form,cancelbutton=cancelbutton,)\n\ndef shipment():\n    PageHeader = "Shipment"\n    rows = db(db.shipment.id>0).select()\n    addbutton = """<a href ="""+URL("inventory","shipmentedit")+""" class="btn btn-block btn-success">Add </a>"""\n    icon="""<a href="""+URL(\'inventory\',\'shipmentedit\')+"""/%s><div class="col-md-3 col-sm-4"><i class="fa fa-fw fa-edit"></i></div></a>"""\n    shipment = json.dumps([dict(id=r.id,Manifest=r.Manifest,editlink=icon  % r.id) for r in rows.render()])#adding render to use represented view of fields\n    #form = SQLFORM(db.shipment,editable=True,)\n\n    return dict(PageHeader=PageHeader,results=XML(shipment), addbutton=XML(addbutton))\ndef shipmentedit():\n    fields=[\'Manifest\',]\n    if (request.args(0)):\n        record = db.shipment(request.args(0)) or redirect(URL(\'error\'))\n        form = SQLFORM(db.shipment, record,fields=fields)\n        #redirect(URL(\'container\'))\n    else:\n        form = SQLFORM(db.shipment,fields=fields)\n        disposalcode  = \'\'\n        #redirect(URL(\'container\'))\n    form.add_button(\'Back\', URL(\'other_page\'))\n\n    if form.process().accepted:\n       response.flash = \'form accepted\'\n       try:\n            record.update_record(**dict(form.vars))#record is updated\n            redirect(URL(\'shipment\'))\n       except NameError:\n            response.flash = \'record added\'\n            redirect(URL(\'shipment\'))\n    elif form.errors:\n       redirect(URL(form.errors))\n       response.flash = \'form has errors\'\n\n    return dict(PageHeader=PageHeader,cancelbutton=cancelbutton,form=form)\n\ndef chemindex():\n    PageHeader = "Chemical Index"\n    icon="""<a href="""+URL(\'inventory\',\'chemindexedit\')+"""/%s><div class="col-md-3 col-sm-4"><i class="fa fa-fw fa-edit"></i></div></a>"""\n    addbutton = """<a href ="""+URL("inventory","chemindexedit")+""" class="btn btn-block btn-success">Add </a>"""\n    #db.chemindex.chazard.represent = render_docs\n    rows = db(db.chemindex.id>0).select()\n    chemindex = json.dumps([dict(id=r.id,chemname=r.chemname,cgroup=r.cgroup,cstate=r.cstate,cdisposalcode=r.cdisposalcode,tsdf=r.tsdf,treatment=r.treatment,chazwastecodes=r.chazwastecodes,chazard=r.chazard,editlink=icon  % r.id) for r in rows.render()])#adding render to use represented view of fields\n    return dict(PageHeader=PageHeader,results=XML(chemindex),addbutton=XML(addbutton))\n\n\ndef chemindexedit():\n    PageHeader = "Chemical Index"\n    fields=[\'chemname\', \'cprefix\', \'casnum\', \'cgroup\', \'cstate\', \'cdisposalcode\', \'cpacktype\', \'treatment\', \'chazwastecodes\', \'chazard\', \'components\',\'comments\']\n    if (request.args(0)): #UPDATE RECORD or INSERT RECORD\n        record = db.chemindex(request.args(0)) or redirect(URL(\'error\'))\n        #disposalcode = record.Idisposalcode #<<<<TODO Add onchange event\n        form = SQLFORM(db.chemindex, record,fields=fields)\n    else:\n        form = SQLFORM(db.chemindex,fields=fields)\n        disposalcode  = \'\'\n    form.add_button(\'Back\', URL(\'other_page\'))\n    cancelbutton = XML( """<a href ="""+URL("inventory","container")+""" class="btn btn-block btn-warning">Cancel </a>""")\n\n    \n    #response.files.append(URL(r=request,c=\'static/multiselect\',f=\'jquery.multiSelect.js\'))\n    #response.files.append(URL(r=request,c=\'static/multiselect\',f=\'jquery.multiSelect.css\'))\n\n    if form.process().accepted:\n       response.flash = \'form accepted\'\n       try:\n            record.update_record(**dict(form.vars))#record is updated\n            redirect(URL(\'chemindex\'))\n       except NameError:\n            response.flash = \'record added\'\n            redirect(URL(\'chemindex\'))\n    elif form.errors:\n       redirect(URL(form.errors))\n       response.flash = \'form has errors\'\n    return dict(PageHeader=PageHeader,cancelbutton=cancelbutton,form=form)\n\nresponse._vars=response._caller(item)\n'
p7
sS'snapshot'
p8
(dp9
S'exception'
p10
(dp11
S'__hash__'
p12
S"<method-wrapper '__hash__' of exceptions.KeyError object>"
p13
sS'__setattr__'
p14
S"<method-wrapper '__setattr__' of exceptions.KeyError object>"
p15
sS'__reduce_ex__'
p16
S'<built-in method __reduce_ex__ of exceptions.KeyError object>'
p17
sS'__getslice__'
p18
S"<method-wrapper '__getslice__' of exceptions.KeyError object>"
p19
sS'__getitem__'
p20
S"<method-wrapper '__getitem__' of exceptions.KeyError object>"
p21
sS'__setstate__'
p22
S'<built-in method __setstate__ of exceptions.KeyError object>'
p23
sS'args'
p24
S'()'
p25
sS'__reduce__'
p26
S'<built-in method __reduce__ of exceptions.KeyError object>'
p27
sS'__str__'
p28
S"<method-wrapper '__str__' of exceptions.KeyError object>"
p29
sS'__format__'
p30
S'<built-in method __format__ of exceptions.KeyError object>'
p31
sS'__getattribute__'
p32
S"<method-wrapper '__getattribute__' of exceptions.KeyError object>"
p33
sS'__class__'
p34
S"<type 'exceptions.KeyError'>"
p35
sS'__unicode__'
p36
S'<built-in method __unicode__ of exceptions.KeyError object>'
p37
sS'__delattr__'
p38
S"<method-wrapper '__delattr__' of exceptions.KeyError object>"
p39
sS'__subclasshook__'
p40
S'<built-in method __subclasshook__ of type object>'
p41
sS'__repr__'
p42
S"<method-wrapper '__repr__' of exceptions.KeyError object>"
p43
sS'__dict__'
p44
S'{}'
p45
sS'__sizeof__'
p46
S'<built-in method __sizeof__ of exceptions.KeyError object>'
p47
sS'__doc__'
p48
S"'Mapping key not found.'"
p49
sS'__init__'
p50
S"<method-wrapper '__init__' of exceptions.KeyError object>"
p51
sS'__new__'
p52
S'<built-in method __new__ of type object>'
p53
ssS'evalue'
p54
S''
sS'request'
p55
cgluon.html
XML_unpickle
p56
(S's\x10j\x00\x00<div><table><tr><td style="font-weight:bold;vertical-align:top;">ajax</td><td style="vertical-align:top;">:</td><td><div>False</div></td></tr><tr><td style="font-weight:bold;vertical-align:top;">application</td><td style="vertical-align:top;">:</td><td><div>chemwastepro</div></td></tr><tr><td style="font-weight:bold;vertical-align:top;">args</td><td style="vertical-align:top;">:</td><td><div><table></table></div></td></tr><tr><td style="font-weight:bold;vertical-align:top;">cid</td><td style="vertical-align:top;">:</td><td><div>None</div></td></tr><tr><td style="font-weight:bold;vertical-align:top;">client</td><td style="vertical-align:top;">:</td><td><div>127.0.0.1</div></td></tr><tr><td style="font-weight:bold;vertical-align:top;">controller</td><td style="vertical-align:top;">:</td><td><div>inventory</div></td></tr><tr><td style="font-weight:bold;vertical-align:top;">cookies</td><td style="vertical-align:top;">:</td><td><div><table><tr><td style="font-weight:bold;vertical-align:top;">session_id_admin</td><td style="vertical-align:top;">:</td><td><div>127.0.0.1-5650c1b4-3a42-4c9a-93ad-c0edd70de25d<table><tr><td style="font-weight:bold;vertical-align:top;">comment</td><td style="vertical-align:top;">:</td><td><div></div></td></tr><tr><td style="font-weight:bold;vertical-align:top;">domain</td><td style="vertical-align:top;">:</td><td><div></div></td></tr><tr><td style="font-weight:bold;vertical-align:top;">expires</td><td style="vertical-align:top;">:</td><td><div></div></td></tr><tr><td style="font-weight:bold;vertical-align:top;">httponly</td><td style="vertical-align:top;">:</td><td><div></div></td></tr><tr><td style="font-weight:bold;vertical-align:top;">max-age</td><td style="vertical-align:top;">:</td><td><div></div></td></tr><tr><td style="font-weight:bold;vertical-align:top;">path</td><td style="vertical-align:top;">:</td><td><div></div></td></tr><tr><td style="font-weight:bold;vertical-align:top;">secure</td><td style="vertical-align:top;">:</td><td><div></div></td></tr><tr><td style="font-weight:bold;vertical-align:top;">version</td><td style="vertical-align:top;">:</td><td><div></div></td></tr></table></div></td></tr><tr><td style="font-weight:bold;vertical-align:top;">session_id_chemwastepro</td><td style="vertical-align:top;">:</td><td><div>127.0.0.1-1c55a826-39dc-404e-a3f5-a7adc79a56f6<table><tr><td style="font-weight:bold;vertical-align:top;">comment</td><td style="vertical-align:top;">:</td><td><div></div></td></tr><tr><td style="font-weight:bold;vertical-align:top;">domain</td><td style="vertical-align:top;">:</td><td><div></div></td></tr><tr><td style="font-weight:bold;vertical-align:top;">expires</td><td style="vertical-align:top;">:</td><td><div></div></td></tr><tr><td style="font-weight:bold;vertical-align:top;">httponly</td><td style="vertical-align:top;">:</td><td><div></div></td></tr><tr><td style="font-weight:bold;vertical-align:top;">max-age</td><td style="vertical-align:top;">:</td><td><div></div></td></tr><tr><td style="font-weight:bold;vertical-align:top;">path</td><td style="vertical-align:top;">:</td><td><div></div></td></tr><tr><td style="font-weight:bold;vertical-align:top;">secure</td><td style="vertical-align:top;">:</td><td><div></div></td></tr><tr><td style="font-weight:bold;vertical-align:top;">version</td><td style="vertical-align:top;">:</td><td><div></div></td></tr></table></div></td></tr><tr><td style="font-weight:bold;vertical-align:top;">session_id_fpdf</td><td style="vertical-align:top;">:</td><td><div>127.0.0.1-65cf59fe-0a34-4a7e-a84a-ee5b75444000<table><tr><td style="font-weight:bold;vertical-align:top;">comment</td><td style="vertical-align:top;">:</td><td><div></div></td></tr><tr><td style="font-weight:bold;vertical-align:top;">domain</td><td style="vertical-align:top;">:</td><td><div></div></td></tr><tr><td style="font-weight:bold;vertical-align:top;">expires</td><td style="vertical-align:top;">:</td><td><div></div></td></tr><tr><td style="font-weight:bold;vertical-align:top;">httponly</td><td style="vertical-align:top;">:</td><td><div></div></td></tr><tr><td style="font-weight:bold;vertical-align:top;">max-age</td><td style="vertical-align:top;">:</td><td><div></div></td></tr><tr><td style="font-weight:bold;vertical-align:top;">path</td><td style="vertical-align:top;">:</td><td><div></div></td></tr><tr><td style="font-weight:bold;vertical-align:top;">secure</td><td style="vertical-align:top;">:</td><td><div></div></td></tr><tr><td style="font-weight:bold;vertical-align:top;">version</td><td style="vertical-align:top;">:</td><td><div></div></td></tr></table></div></td></tr><tr><td style="font-weight:bold;vertical-align:top;">session_id_ohwm</td><td style="vertical-align:top;">:</td><td><div>127.0.0.1-95ae3387-6266-4f03-b9be-02670f99da41<table><tr><td style="font-weight:bold;vertical-align:top;">comment</td><td style="vertical-align:top;">:</td><td><div></div></td></tr><tr><td style="font-weight:bold;vertical-align:top;">domain</td><td style="vertical-align:top;">:</td><td><div></div></td></tr><tr><td style="font-weight:bold;vertical-align:top;">expires</td><td style="vertical-align:top;">:</td><td><div></div></td></tr><tr><td style="font-weight:bold;vertical-align:top;">httponly</td><td style="vertical-align:top;">:</td><td><div></div></td></tr><tr><td style="font-weight:bold;vertical-align:top;">max-age</td><td style="vertical-align:top;">:</td><td><div></div></td></tr><tr><td style="font-weight:bold;vertical-align:top;">path</td><td style="vertical-align:top;">:</td><td><div></div></td></tr><tr><td style="font-weight:bold;vertical-align:top;">secure</td><td style="vertical-align:top;">:</td><td><div></div></td></tr><tr><td style="font-weight:bold;vertical-align:top;">version</td><td style="vertical-align:top;">:</td><td><div></div></td></tr></table></div></td></tr><tr><td style="font-weight:bold;vertical-align:top;">session_id_welcome</td><td style="vertical-align:top;">:</td><td><div>127.0.0.1-b66a36f3-3652-45ea-96b6-a8528920a973<table><tr><td style="font-weight:bold;vertical-align:top;">comment</td><td style="vertical-align:top;">:</td><td><div></div></td></tr><tr><td style="font-weight:bold;vertical-align:top;">domain</td><td style="vertical-align:top;">:</td><td><div></div></td></tr><tr><td style="font-weight:bold;vertical-align:top;">expires</td><td style="vertical-align:top;">:</td><td><div></div></td></tr><tr><td style="font-weight:bold;vertical-align:top;">httponly</td><td style="vertical-align:top;">:</td><td><div></div></td></tr><tr><td style="font-weight:bold;vertical-align:top;">max-age</td><td style="vertical-align:top;">:</td><td><div></div></td></tr><tr><td style="font-weight:bold;vertical-align:top;">path</td><td style="vertical-align:top;">:</td><td><div></div></td></tr><tr><td style="font-weight:bold;vertical-align:top;">secure</td><td style="vertical-align:top;">:</td><td><div></div></td></tr><tr><td style="font-weight:bold;vertical-align:top;">version</td><td style="vertical-align:top;">:</td><td><div></div></td></tr></table></div></td></tr></table></div></td></tr><tr><td style="font-weight:bold;vertical-align:top;">env</td><td style="vertical-align:top;">:</td><td><div><table><tr><td style="font-weight:bold;vertical-align:top;">HTTP_ACCEPT</td><td style="vertical-align:top;">:</td><td><div>text/html,application/xhtml+xml,application/xml;q=0.9,image/webp,*/*;q=0.8</div></td></tr><tr><td style="font-weight:bold;vertical-align:top;">HTTP_ACCEPT_ENCODING</td><td style="vertical-align:top;">:</td><td><div>gzip, deflate, sdch</div></td></tr><tr><td style="font-weight:bold;vertical-align:top;">HTTP_ACCEPT_LANGUAGE</td><td style="vertical-align:top;">:</td><td><div>en-US,en;q=0.8,ms;q=0.6</div></td></tr><tr><td style="font-weight:bold;vertical-align:top;">HTTP_CACHE_CONTROL</td><td style="vertical-align:top;">:</td><td><div>max-age=0</div></td></tr><tr><td style="font-weight:bold;vertical-align:top;">HTTP_CONNECTION</td><td style="vertical-align:top;">:</td><td><div>keep-alive</div></td></tr><tr><td style="font-weight:bold;vertical-align:top;">HTTP_COOKIE</td><td style="vertical-align:top;">:</td><td><div>session_id_fpdf=127.0.0.1-65cf59fe-0a34-4a7e-a84a-ee5b75444000; session_id_welcome=127.0.0.1-b66a36f3-3652-45ea-96b6-a8528920a973; session_id_ohwm=127.0.0.1-95ae3387-6266-4f03-b9be-02670f99da41; session_id_chemwastepro=127.0.0.1-1c55a826-39dc-404e-a3f5-a7adc79a56f6; session_id_admin=127.0.0.1-5650c1b4-3a42-4c9a-93ad-c0edd70de25d</div></td></tr><tr><td style="font-weight:bold;vertical-align:top;">HTTP_HOST</td><td style="vertical-align:top;">:</td><td><div>127.0.0.1:8000</div></td></tr><tr><td style="font-weight:bold;vertical-align:top;">HTTP_REFERER</td><td style="vertical-align:top;">:</td><td><div>http://127.0.0.1:8000/chemwastepro/inventory/container</div></td></tr><tr><td style="font-weight:bold;vertical-align:top;">HTTP_UPGRADE_INSECURE_REQUESTS</td><td style="vertical-align:top;">:</td><td><div>1</div></td></tr><tr><td style="font-weight:bold;vertical-align:top;">HTTP_USER_AGENT</td><td style="vertical-align:top;">:</td><td><div>Mozilla/5.0 (Macintosh; Intel Mac OS X 10_11_3) AppleWebKit/537.36 (KHTML, like Gecko) Chrome/48.0.2564.109 Safari/537.36</div></td></tr><tr><td style="font-weight:bold;vertical-align:top;">PATH_INFO</td><td style="vertical-align:top;">:</td><td><div>/chemwastepro/inventory/item</div></td></tr><tr><td style="font-weight:bold;vertical-align:top;">QUERY_STRING</td><td style="vertical-align:top;">:</td><td><div></div></td></tr><tr><td style="font-weight:bold;vertical-align:top;">REMOTE_ADDR</td><td style="vertical-align:top;">:</td><td><div>127.0.0.1</div></td></tr><tr><td style="font-weight:bold;vertical-align:top;">REMOTE_PORT</td><td style="vertical-align:top;">:</td><td><div>55597</div></td></tr><tr><td style="font-weight:bold;vertical-align:top;">REQUEST_METHOD</td><td style="vertical-align:top;">:</td><td><div>GET</div></td></tr><tr><td style="font-weight:bold;vertical-align:top;">SCRIPT_NAME</td><td style="vertical-align:top;">:</td><td><div></div></td></tr><tr><td style="font-weight:bold;vertical-align:top;">SERVER_NAME</td><td style="vertical-align:top;">:</td><td><div>M1PDG8WL</div></td></tr><tr><td style="font-weight:bold;vertical-align:top;">SERVER_PORT</td><td style="vertical-align:top;">:</td><td><div>8000</div></td></tr><tr><td style="font-weight:bold;vertical-align:top;">SERVER_PROTOCOL</td><td style="vertical-align:top;">:</td><td><div>HTTP/1.1</div></td></tr><tr><td style="font-weight:bold;vertical-align:top;">SERVER_SOFTWARE</td><td style="vertical-align:top;">:</td><td><div>Rocket 1.2.6</div></td></tr><tr><td style="font-weight:bold;vertical-align:top;">app_folders</td><td style="vertical-align:top;">:</td><td><div>set([&#x27;/Users/byoung/Desktop/web2py/web2py.app/Contents/Resources/applications/admin/&#x27;, &#x27;/Users/byoung/Desktop/web2py/web2py.app/Contents/Resources/applications/welcome/&#x27;, &#x27;/Users/byoung/Desktop/web2py/web2py.app/Contents/Resources/applications/OHWM/&#x27;, &#x27;/Users/byoung/Desktop/web2py/web2py.app/Contents/Resources/applications/chemwastepro/&#x27;])</div></td></tr><tr><td style="font-weight:bold;vertical-align:top;">applications_parent</td><td style="vertical-align:top;">:</td><td><div>/Users/byoung/Desktop/web2py/web2py.app/Contents/Resources</div></td></tr><tr><td style="font-weight:bold;vertical-align:top;">cmd_args</td><td style="vertical-align:top;">:</td><td><div><table></table></div></td></tr><tr><td style="font-weight:bold;vertical-align:top;">cmd_options</td><td style="vertical-align:top;">:</td><td><div>&lt;Values at 0x108846d88: {&#x27;verbose&#x27;: False, &#x27;ip&#x27;: &#x27;127.0.0.1&#x27;, &#x27;debuglevel&#x27;: 30, &#x27;with_scheduler&#x27;: False, &#x27;ips&#x27;: [], &#x27;shutdown_timeout&#x27;: 5, &#x27;taskbar&#x27;: False, &#x27;with_coverage&#x27;: False, &#x27;scheduler_groups&#x27;: None, &#x27;port&#x27;: 8000, &#x27;maxthreads&#x27;: None, &#x27;softcron&#x27;: False, &#x27;server_name&#x27;: &#x27;M1PDG8WL&#x27;, &#x27;bpython&#x27;: False, &#x27;nogui&#x27;: False, &#x27;pid_filename&#x27;: &#x27;httpserver.pid&#x27;, &#x27;print_errors&#x27;: False, &#x27;extcron&#x27;: False, &#x27;runcron&#x27;: False, &#x27;run_system_tests&#x27;: False, &#x27;test&#x27;: None, &#x27;folder&#x27;: &#x27;/Users/byoung/Desktop/web2py/web2py.app/Contents/Resources&#x27;, &#x27;config&#x27;: &#x27;&#x27;, &#x27;minthreads&#x27;: None, &#x27;shell&#x27;: None, &#x27;run&#x27;: &#x27;&#x27;, &#x27;log_filename&#x27;: &#x27;httpserver.log&#x27;, &#x27;profiler_dir&#x27;: None, &#x27;args&#x27;: [&#x27;&#x27;], &#x27;socket_timeout&#x27;: 5, &#x27;ssl_ca_certificate&#x27;: None, &#x27;scheduler&#x27;: None, &#x27;interfaces&#x27;: None, &#x27;ssl_private_key&#x27;: &#x27;&#x27;, &#x27;gae&#x27;: None, &#x27;password&#x27;: &#x27;&lt;ask&gt;&#x27;, &#x27;request_queue_size&#x27;: 5, &#x27;ssl_certificate&#x27;: &#x27;&#x27;, &#x27;cronjob&#x27;: False, &#x27;numthreads&#x27;: None, &#x27;quiet&#x27;: False, &#x27;import_models&#x27;: False, &#x27;timeout&#x27;: 10, &#x27;plain&#x27;: False, &#x27;nobanner&#x27;: False}&gt;</div></td></tr><tr><td style="font-weight:bold;vertical-align:top;">db_sessions</td><td style="vertical-align:top;">:</td><td><div>set([])</div></td></tr><tr><td style="font-weight:bold;vertical-align:top;">debugging</td><td style="vertical-align:top;">:</td><td><div>True</div></td></tr><tr><td style="font-weight:bold;vertical-align:top;">gluon_parent</td><td style="vertical-align:top;">:</td><td><div>/Users/byoung/Desktop/web2py/web2py.app/Contents/Resources</div></td></tr><tr><td style="font-weight:bold;vertical-align:top;">http_accept</td><td style="vertical-align:top;">:</td><td><div>text/html,application/xhtml+xml,application/xml;q=0.9,image/webp,*/*;q=0.8</div></td></tr><tr><td style="font-weight:bold;vertical-align:top;">http_accept_encoding</td><td style="vertical-align:top;">:</td><td><div>gzip, deflate, sdch</div></td></tr><tr><td style="font-weight:bold;vertical-align:top;">http_accept_language</td><td style="vertical-align:top;">:</td><td><div>en-US,en;q=0.8,ms;q=0.6</div></td></tr><tr><td style="font-weight:bold;vertical-align:top;">http_cache_control</td><td style="vertical-align:top;">:</td><td><div>max-age=0</div></td></tr><tr><td style="font-weight:bold;vertical-align:top;">http_connection</td><td style="vertical-align:top;">:</td><td><div>keep-alive</div></td></tr><tr><td style="font-weight:bold;vertical-align:top;">http_cookie</td><td style="vertical-align:top;">:</td><td><div>session_id_fpdf=127.0.0.1-65cf59fe-0a34-4a7e-a84a-ee5b75444000; session_id_welcome=127.0.0.1-b66a36f3-3652-45ea-96b6-a8528920a973; session_id_ohwm=127.0.0.1-95ae3387-6266-4f03-b9be-02670f99da41; session_id_chemwastepro=127.0.0.1-1c55a826-39dc-404e-a3f5-a7adc79a56f6; session_id_admin=127.0.0.1-5650c1b4-3a42-4c9a-93ad-c0edd70de25d</div></td></tr><tr><td style="font-weight:bold;vertical-align:top;">http_host</td><td style="vertical-align:top;">:</td><td><div>127.0.0.1:8000</div></td></tr><tr><td style="font-weight:bold;vertical-align:top;">http_referer</td><td style="vertical-align:top;">:</td><td><div>http://127.0.0.1:8000/chemwastepro/inventory/container</div></td></tr><tr><td style="font-weight:bold;vertical-align:top;">http_upgrade_insecure_requests</td><td style="vertical-align:top;">:</td><td><div>1</div></td></tr><tr><td style="font-weight:bold;vertical-align:top;">http_user_agent</td><td style="vertical-align:top;">:</td><td><div>Mozilla/5.0 (Macintosh; Intel Mac OS X 10_11_3) AppleWebKit/537.36 (KHTML, like Gecko) Chrome/48.0.2564.109 Safari/537.36</div></td></tr><tr><td style="font-weight:bold;vertical-align:top;">is_jython</td><td style="vertical-align:top;">:</td><td><div>False</div></td></tr><tr><td style="font-weight:bold;vertical-align:top;">is_pypy</td><td style="vertical-align:top;">:</td><td><div>False</div></td></tr><tr><td style="font-weight:bold;vertical-align:top;">is_source</td><td style="vertical-align:top;">:</td><td><div>True</div></td></tr><tr><td style="font-weight:bold;vertical-align:top;">local_hosts</td><td style="vertical-align:top;">:</td><td><div><table><tr><td><div>::1</div></td></tr><tr><td><div>M1PDG8WL</div></td></tr><tr><td><div>::ffff:127.0.0.1</div></td></tr><tr><td><div>127.0.0.1</div></td></tr></table></div></td></tr><tr><td style="font-weight:bold;vertical-align:top;">path_info</td><td style="vertical-align:top;">:</td><td><div>/chemwastepro/inventory/item</div></td></tr><tr><td style="font-weight:bold;vertical-align:top;">query_string</td><td style="vertical-align:top;">:</td><td><div></div></td></tr><tr><td style="font-weight:bold;vertical-align:top;">remote_addr</td><td style="vertical-align:top;">:</td><td><div>127.0.0.1</div></td></tr><tr><td style="font-weight:bold;vertical-align:top;">remote_port</td><td style="vertical-align:top;">:</td><td><div>55597</div></td></tr><tr><td style="font-weight:bold;vertical-align:top;">request_method</td><td style="vertical-align:top;">:</td><td><div>GET</div></td></tr><tr><td style="font-weight:bold;vertical-align:top;">request_uri</td><td style="vertical-align:top;">:</td><td><div>/chemwastepro/inventory/item</div></td></tr><tr><td style="font-weight:bold;vertical-align:top;">script_name</td><td style="vertical-align:top;">:</td><td><div></div></td></tr><tr><td style="font-weight:bold;vertical-align:top;">server_name</td><td style="vertical-align:top;">:</td><td><div>M1PDG8WL</div></td></tr><tr><td style="font-weight:bold;vertical-align:top;">server_port</td><td style="vertical-align:top;">:</td><td><div>8000</div></td></tr><tr><td style="font-weight:bold;vertical-align:top;">server_protocol</td><td style="vertical-align:top;">:</td><td><div>HTTP/1.1</div></td></tr><tr><td style="font-weight:bold;vertical-align:top;">server_software</td><td style="vertical-align:top;">:</td><td><div>Rocket 1.2.6</div></td></tr><tr><td style="font-weight:bold;vertical-align:top;">web2py_path</td><td style="vertical-align:top;">:</td><td><div>/Users/byoung/Desktop/web2py/web2py.app/Contents/Resources</div></td></tr><tr><td style="font-weight:bold;vertical-align:top;">web2py_version</td><td style="vertical-align:top;">:</td><td><div>2.13.4-stable+timestamp.2015.12.26.04.59.39</div></td></tr><tr><td style="font-weight:bold;vertical-align:top;">wsgi.errors</td><td style="vertical-align:top;">:</td><td><div>&lt;open file &#x27;&lt;stderr&gt;&#x27;, mode &#x27;w&#x27; at 0x10005b270&gt;</div></td></tr><tr><td style="font-weight:bold;vertical-align:top;">wsgi.file_wrapper</td><td style="vertical-align:top;">:</td><td><div>&lt;class wsgiref.util.FileWrapper at 0x10887a0b8&gt;</div></td></tr><tr><td style="font-weight:bold;vertical-align:top;">wsgi.input</td><td style="vertical-align:top;">:</td><td><div>&lt;socket._fileobject object at 0x10cbd29d0&gt;</div></td></tr><tr><td style="font-weight:bold;vertical-align:top;">wsgi.multiprocess</td><td style="vertical-align:top;">:</td><td><div>False</div></td></tr><tr><td style="font-weight:bold;vertical-align:top;">wsgi.multithread</td><td style="vertical-align:top;">:</td><td><div>True</div></td></tr><tr><td style="font-weight:bold;vertical-align:top;">wsgi.run_once</td><td style="vertical-align:top;">:</td><td><div>False</div></td></tr><tr><td style="font-weight:bold;vertical-align:top;">wsgi.url_scheme</td><td style="vertical-align:top;">:</td><td><div>http</div></td></tr><tr><td style="font-weight:bold;vertical-align:top;">wsgi.version</td><td style="vertical-align:top;">:</td><td><div><table><tr><td><div>1</div></td></tr><tr><td><div>0</div></td></tr></table></div></td></tr><tr><td style="font-weight:bold;vertical-align:top;">wsgi_errors</td><td style="vertical-align:top;">:</td><td><div>&lt;open file &#x27;&lt;stderr&gt;&#x27;, mode &#x27;w&#x27; at 0x10005b270&gt;</div></td></tr><tr><td style="font-weight:bold;vertical-align:top;">wsgi_file_wrapper</td><td style="vertical-align:top;">:</td><td><div>&lt;class wsgiref.util.FileWrapper at 0x10887a0b8&gt;</div></td></tr><tr><td style="font-weight:bold;vertical-align:top;">wsgi_input</td><td style="vertical-align:top;">:</td><td><div>&lt;socket._fileobject object at 0x10cbd29d0&gt;</div></td></tr><tr><td style="font-weight:bold;vertical-align:top;">wsgi_multiprocess</td><td style="vertical-align:top;">:</td><td><div>False</div></td></tr><tr><td style="font-weight:bold;vertical-align:top;">wsgi_multithread</td><td style="vertical-align:top;">:</td><td><div>True</div></td></tr><tr><td style="font-weight:bold;vertical-align:top;">wsgi_run_once</td><td style="vertical-align:top;">:</td><td><div>False</div></td></tr><tr><td style="font-weight:bold;vertical-align:top;">wsgi_url_scheme</td><td style="vertical-align:top;">:</td><td><div>http</div></td></tr><tr><td style="font-weight:bold;vertical-align:top;">wsgi_version</td><td style="vertical-align:top;">:</td><td><div><table><tr><td><div>1</div></td></tr><tr><td><div>0</div></td></tr></table></div></td></tr></table></div></td></tr><tr><td style="font-weight:bold;vertical-align:top;">extension</td><td style="vertical-align:top;">:</td><td><div>html</div></td></tr><tr><td style="font-weight:bold;vertical-align:top;">folder</td><td style="vertical-align:top;">:</td><td><div>/Users/byoung/Desktop/web2py/web2py.app/Contents/Resources/applications/chemwastepro/</div></td></tr><tr><td style="font-weight:bold;vertical-align:top;">function</td><td style="vertical-align:top;">:</td><td><div>item</div></td></tr><tr><td style="font-weight:bold;vertical-align:top;">global_settings</td><td style="vertical-align:top;">:</td><td><div><table><tr><td style="font-weight:bold;vertical-align:top;">app_folders</td><td style="vertical-align:top;">:</td><td><div>set([&#x27;/Users/byoung/Desktop/web2py/web2py.app/Contents/Resources/applications/admin/&#x27;, &#x27;/Users/byoung/Desktop/web2py/web2py.app/Contents/Resources/applications/welcome/&#x27;, &#x27;/Users/byoung/Desktop/web2py/web2py.app/Contents/Resources/applications/OHWM/&#x27;, &#x27;/Users/byoung/Desktop/web2py/web2py.app/Contents/Resources/applications/chemwastepro/&#x27;])</div></td></tr><tr><td style="font-weight:bold;vertical-align:top;">applications_parent</td><td style="vertical-align:top;">:</td><td><div>/Users/byoung/Desktop/web2py/web2py.app/Contents/Resources</div></td></tr><tr><td style="font-weight:bold;vertical-align:top;">cmd_args</td><td style="vertical-align:top;">:</td><td><div><table></table></div></td></tr><tr><td style="font-weight:bold;vertical-align:top;">cmd_options</td><td style="vertical-align:top;">:</td><td><div>&lt;Values at 0x108846d88: {&#x27;verbose&#x27;: False, &#x27;ip&#x27;: &#x27;127.0.0.1&#x27;, &#x27;debuglevel&#x27;: 30, &#x27;with_scheduler&#x27;: False, &#x27;ips&#x27;: [], &#x27;shutdown_timeout&#x27;: 5, &#x27;taskbar&#x27;: False, &#x27;with_coverage&#x27;: False, &#x27;scheduler_groups&#x27;: None, &#x27;port&#x27;: 8000, &#x27;maxthreads&#x27;: None, &#x27;softcron&#x27;: False, &#x27;server_name&#x27;: &#x27;M1PDG8WL&#x27;, &#x27;bpython&#x27;: False, &#x27;nogui&#x27;: False, &#x27;pid_filename&#x27;: &#x27;httpserver.pid&#x27;, &#x27;print_errors&#x27;: False, &#x27;extcron&#x27;: False, &#x27;runcron&#x27;: False, &#x27;run_system_tests&#x27;: False, &#x27;test&#x27;: None, &#x27;folder&#x27;: &#x27;/Users/byoung/Desktop/web2py/web2py.app/Contents/Resources&#x27;, &#x27;config&#x27;: &#x27;&#x27;, &#x27;minthreads&#x27;: None, &#x27;shell&#x27;: None, &#x27;run&#x27;: &#x27;&#x27;, &#x27;log_filename&#x27;: &#x27;httpserver.log&#x27;, &#x27;profiler_dir&#x27;: None, &#x27;args&#x27;: [&#x27;&#x27;], &#x27;socket_timeout&#x27;: 5, &#x27;ssl_ca_certificate&#x27;: None, &#x27;scheduler&#x27;: None, &#x27;interfaces&#x27;: None, &#x27;ssl_private_key&#x27;: &#x27;&#x27;, &#x27;gae&#x27;: None, &#x27;password&#x27;: &#x27;&lt;ask&gt;&#x27;, &#x27;request_queue_size&#x27;: 5, &#x27;ssl_certificate&#x27;: &#x27;&#x27;, &#x27;cronjob&#x27;: False, &#x27;numthreads&#x27;: None, &#x27;quiet&#x27;: False, &#x27;import_models&#x27;: False, &#x27;timeout&#x27;: 10, &#x27;plain&#x27;: False, &#x27;nobanner&#x27;: False}&gt;</div></td></tr><tr><td style="font-weight:bold;vertical-align:top;">db_sessions</td><td style="vertical-align:top;">:</td><td><div>set([])</div></td></tr><tr><td style="font-weight:bold;vertical-align:top;">debugging</td><td style="vertical-align:top;">:</td><td><div>True</div></td></tr><tr><td style="font-weight:bold;vertical-align:top;">gluon_parent</td><td style="vertical-align:top;">:</td><td><div>/Users/byoung/Desktop/web2py/web2py.app/Contents/Resources</div></td></tr><tr><td style="font-weight:bold;vertical-align:top;">is_jython</td><td style="vertical-align:top;">:</td><td><div>False</div></td></tr><tr><td style="font-weight:bold;vertical-align:top;">is_pypy</td><td style="vertical-align:top;">:</td><td><div>False</div></td></tr><tr><td style="font-weight:bold;vertical-align:top;">is_source</td><td style="vertical-align:top;">:</td><td><div>True</div></td></tr><tr><td style="font-weight:bold;vertical-align:top;">local_hosts</td><td style="vertical-align:top;">:</td><td><div><table><tr><td><div>::1</div></td></tr><tr><td><div>M1PDG8WL</div></td></tr><tr><td><div>::ffff:127.0.0.1</div></td></tr><tr><td><div>127.0.0.1</div></td></tr></table></div></td></tr><tr><td style="font-weight:bold;vertical-align:top;">web2py_version</td><td style="vertical-align:top;">:</td><td><div>2.13.4-stable+timestamp.2015.12.26.04.59.39</div></td></tr></table></div></td></tr><tr><td style="font-weight:bold;vertical-align:top;">is_https</td><td style="vertical-align:top;">:</td><td><div>False</div></td></tr><tr><td style="font-weight:bold;vertical-align:top;">is_local</td><td style="vertical-align:top;">:</td><td><div>True</div></td></tr><tr><td style="font-weight:bold;vertical-align:top;">is_restful</td><td style="vertical-align:top;">:</td><td><div>False</div></td></tr><tr><td style="font-weight:bold;vertical-align:top;">is_scheduler</td><td style="vertical-align:top;">:</td><td><div>False</div></td></tr><tr><td style="font-weight:bold;vertical-align:top;">is_shell</td><td style="vertical-align:top;">:</td><td><div>False</div></td></tr><tr><td style="font-weight:bold;vertical-align:top;">now</td><td style="vertical-align:top;">:</td><td><div>datetime.datetime(2016, 2, 19, 14, 13, 16, 368092)</div></td></tr><tr><td style="font-weight:bold;vertical-align:top;">raw_args</td><td style="vertical-align:top;">:</td><td><div></div></td></tr><tr><td style="font-weight:bold;vertical-align:top;">raw_extension</td><td style="vertical-align:top;">:</td><td><div>None</div></td></tr><tr><td style="font-weight:bold;vertical-align:top;">url</td><td style="vertical-align:top;">:</td><td><div>/chemwastepro/inventory/item</div></td></tr><tr><td style="font-weight:bold;vertical-align:top;">utcnow</td><td style="vertical-align:top;">:</td><td><div>datetime.datetime(2016, 2, 19, 22, 13, 16, 368101)</div></td></tr><tr><td style="font-weight:bold;vertical-align:top;">wsgi</td><td style="vertical-align:top;">:</td><td><div>&lt;gluon.main.LazyWSGI object at 0x10d94eb50&gt;</div></td></tr></table></div>'
tRp57
sS'frames'
p58
(lp59
(dp60
S'file'
p61
S'/Users/byoung/Desktop/web2py/web2py.app/Contents/Resources/gluon/restricted.py'
p62
sS'dump'
p63
(dp64
sS'lnum'
p65
I227
sS'lines'
p66
(dp67
I224
S'            ccode = code'
p68
sI225
S'        else:'
p69
sI226
S'            ccode = compile2(code, layer)'
p70
sI227
S'        exec ccode in environment'
p71
sI228
S'    except HTTP:'
p72
sI229
S'        raise'
p73
sI230
S'    except RestrictedError:'
p74
sI231
S'        # do not encapsulate (obfuscate) the original RestrictedError'
p75
sI222
S'    try:'
p76
sI223
S'        if isinstance(code, types.CodeType):'
p77
ssS'call'
p78
S"(code='# -*- coding: utf-8 -*-\\n# try something like\\nfro...orm=form)\\n\\nresponse._vars=response._caller(item)\\n', environment={'A': <class 'gluon.html.A'>, 'ANY_OF': <class 'gluon.validators.ANY_OF'>, 'ASSIGNJS': <function ASSIGNJS>, 'AppConfig': <function AppConfig>, 'Auth': <class 'gluon.tools.Auth'>, 'B': <class 'gluon.html.B'>, 'BEAUTIFY': <class 'gluon.html.BEAUTIFY'>, 'BODY': <class 'gluon.html.BODY'>, 'BR': <class 'gluon.html.BR'>, 'BUTTON': <class 'gluon.html.BUTTON'>, ...}, layer='/Users/byoung/Desktop/web2py/web2py.app/Contents...pplications/chemwastepro/controllers/inventory.py')"
p79
sS'func'
p80
S'restricted'
p81
sa(dp82
g61
S'/Users/byoung/Desktop/web2py/web2py.app/Contents/Resources/applications/chemwastepro/controllers/inventory.py'
p83
sg63
(dp84
sg65
I180
sg66
(dp85
I169
S'       try:'
p86
sI170
S'            record.update_record(**dict(form.vars))#record is updated'
p87
sI171
S"            redirect(URL('chemindex'))"
p88
sI172
S'       except NameError:'
p89
sI173
S"            response.flash = 'record added'"
p90
sI174
S"            redirect(URL('chemindex'))"
p91
sI175
S'    elif form.errors:'
p92
sI176
S'       redirect(URL(form.errors))'
p93
sI177
S"       response.flash = 'form has errors'"
p94
sI178
S'    return dict(PageHeader=PageHeader,cancelbutton=cancelbutton,form=form)'
p95
ssg78
S'()'
p96
sg80
S'<module>'
p97
sa(dp98
g61
S'/Users/byoung/Desktop/web2py/web2py.app/Contents/Resources/gluon/globals.py'
p99
sg63
(dp100
sg65
I412
sg66
(dp101
I416
S"        self.generic_patterns = ['*']"
p102
sI407
S"        self.flash = ''            # used by the default view layout"
p103
sI408
S'        self.meta = Storage()      # used by web2py_ajax.html'
p104
sI409
S'        self.menu = []             # used by the default view layout'
p105
sI410
S'        self.files = []            # used by web2py_ajax.html'
p106
sI411
S'        self._vars = None'
p107
sI412
S'        self._caller = lambda f: f()'
p108
sI413
S'        self._view_environment = None'
p109
sI414
S'        self._custom_commit = None'
p110
sI415
S'        self._custom_rollback = None'
p111
ssg78
S'(f=<function item>)'
p112
sg80
S'<lambda>'
p113
sa(dp114
g61
S'/Users/byoung/Desktop/web2py/web2py.app/Contents/Resources/applications/chemwastepro/controllers/inventory.py'
p115
sg63
(dp116
sg65
I30
sg66
(dp117
I32
S'    return dict(PageHeader=PageHeader,addbutton=XML(addbutton),results=XML(item))'
p118
sI33
S''
sI34
S''
sI25
S'    #Cannot use this:'
p119
sI26
S'    #item = json.dumps(db(db.item).select().as_list())'
p120
sI27
S'    #Because we need the represented value, like "chemical Name"'
p121
sI28
S'    #So we do this:'
p122
sI29
S'    rows = db(db.item.id>0).select()'
p123
sI30
S'    item = json.dumps([dict(id=r.id,Iname=r.Iname,Idisposalcode=r.Idisposalcode,Ipounds=r.Ipounds,Icontainer=r.Icontainer,Ishelf=r.Ishelf,editlink=editlink  % r.id) for r in rows.render()])#adding render to use represented view of fields'
p124
sI31
S''
ssg78
S'()'
p125
sg80
S'item'
p126
sa(dp127
g61
S'/Users/byoung/Desktop/web2py/web2py.app/Contents/Resources/gluon/packages/dal/pydal/objects.py'
p128
sg63
(dp129
sg65
I2700
sg66
(dp130
I2695
S'                over all the rows.'
p131
sI2696
S'            fields: a list of fields to transform (if None, all fields with'
p132
sI2697
S'                "represent" attributes will be transformed)'
p133
sI2698
S'        """'
p134
sI2699
S'        if i is None:'
p135
sI2700
S'            return (self.render(i, fields=fields) for i in range(len(self)))'
p136
sI2701
S"        if not self.db.has_representer('rows_render'):"
p137
sI2702
S'            raise RuntimeError("Rows.render() needs a `rows_render` \\'
p138
sI2703
S'                               representer in DAL instance")'
p139
sI2704
S'        row = copy.deepcopy(self.records[i])'
p140
ssg78
S'((i=0,))'
p141
sg80
S'<genexpr>'
p142
sa(dp143
g61
S'/Users/byoung/Desktop/web2py/web2py.app/Contents/Resources/gluon/packages/dal/pydal/objects.py'
p144
sg63
(dp145
sg65
I2717
sg66
(dp146
I2720
S'            return row[keys[0]]'
p147
sI2721
S'        return row'
p148
sI2712
S'                                    isinstance(self.db[table][k], Field)'
p149
sI2713
S'                                    and self.db[table][k].represent)]'
p150
sI2714
S'            for field in repr_fields:'
p151
sI2715
S'                row[table][field] = self.db.represent('
p152
sI2716
S"                    'rows_render', self.db[table][field], row[table][field],"
p153
sI2717
S'                    row[table])'
p154
sI2718
S''
sI2719
S"        if self.compact and len(keys) == 1 and keys[0] != '_extra':"
p155
ssg78
S'(self=<Rows (10)>, i=0, fields=None)'
p156
sg80
S'render'
p157
sa(dp158
g61
S'/Users/byoung/Desktop/web2py/web2py.app/Contents/Resources/gluon/packages/dal/pydal/base.py'
p159
sg63
(dp160
sg65
I1076
sg66
(dp161
I1071
S''
sI1072
S'    def has_representer(self, name):'
p162
sI1073
S'        return callable(self.representers.get(name))'
p163
sI1074
S''
sI1075
S'    def represent(self, name, *args, **kwargs):'
p164
sI1076
S'        return self.representers[name](*args, **kwargs)'
p165
sI1077
S''
sI1078
S'    def export_to_csv_file(self, ofile, *args, **kwargs):'
p166
sI1079
S"        step = long(kwargs.get('max_fetch_rows,',500))"
p167
sI1080
S"        write_colnames = kwargs['write_colnames'] = \\"
p168
ssg78
S'(self=<DAL uri="mysql:******@localhost/chemwastepro">, name=\'rows_render\', *args=(<pydal.objects.Field object>, 3L, <Row {\'Iinputnumber\': 1L, \'Iamount\': 12.0, \'Ipou...: \'Item components\\r\\nClorax\\r\\nBorax\\r\\nLorax\'}>), **kwargs={})'
p169
sg80
S'represent'
p170
sa(dp171
g61
S'/Users/byoung/Desktop/web2py/web2py.app/Contents/Resources/gluon/sqlhtml.py'
p172
sg63
(dp173
sg65
I68
sg66
(dp174
I64
S'            n -= 1'
p175
sI65
S'    else:'
p176
sI66
S'        n = 1'
p177
sI67
S'    if n == 1:'
p178
sI68
S'        return f(value)'
p179
sI69
S'    elif n == 2:'
p180
sI70
S'        return f(value, record)'
p181
sI71
S'    else:'
p182
sI72
S'        raise RuntimeError("field representation must take 1 or 2 args")'
p183
sI63
S"        if getattr(f, 'im_self', None):"
p184
ssg78
S"(field=<pydal.objects.Field object>, value=3L, record=<Row {'Iinputnumber': 1L, 'Iamount': 12.0, 'Ipou...: 'Item components\\r\\nClorax\\r\\nBorax\\r\\nLorax'}>)"
p185
sg80
g170
sa(dp186
g61
S'/Users/byoung/Desktop/web2py/web2py.app/Contents/Resources/gluon/packages/dal/pydal/helpers/methods.py'
p187
sg63
(dp188
sg65
I265
sg66
(dp189
I260
S'class _repr_ref(object):'
p190
sI261
S'    def __init__(self, ref=None):'
p191
sI262
S'        self.ref = ref'
p192
sI263
S''
sI264
S'    def __call__(self, value, row=None):'
p193
sI265
S'        return value if value is None else _fieldformat(self.ref, value)'
p194
sI266
S''
sI267
S''
sI268
S'class _repr_ref_list(_repr_ref):'
p195
sI269
S'    def __call__(self, value, row=None):'
p196
ssg78
S'(self=<pydal.helpers.methods._repr_ref object>, value=3L, row=None)'
p197
sg80
S'__call__'
p198
sa(dp199
g61
S'/Users/byoung/Desktop/web2py/web2py.app/Contents/Resources/gluon/packages/dal/pydal/helpers/methods.py'
p200
sg63
(dp201
sg65
I253
sg66
(dp202
I256
S'    else:'
p203
sI257
S'        return str(id)'
p204
sI248
S'def _fieldformat(r, id):'
p205
sI249
S'    row = r(id)'
p206
sI250
S'    if not row:'
p207
sI251
S'        return str(id)'
p208
sI252
S"    elif hasattr(r, '_format') and isinstance(r._format, str):"
p209
sI253
S'        return r._format % row'
p210
sI254
S"    elif hasattr(r, '_format') and callable(r._format):"
p211
sI255
S'        return r._format(row)'
p212
ssg78
S'(r=<Table container (id,contnum,PSN,OpenDate,CloseD...sion,PGgroup,PSNdescriptor,chazardousproperties)>, id=3L)'
p213
sg80
S'_fieldformat'
p214
sa(dp215
g61
S'/Users/byoung/Desktop/web2py/web2py.app/Contents/Resources/gluon/packages/dal/pydal/objects.py'
p216
sg63
(dp217
sg65
I76
sg66
(dp218
I71
S'                self[key] = e(key)'
p219
sI72
S'                return self[key]'
p220
sI73
S'        except Exception as e:'
p221
sI74
S'            raise e'
p222
sI75
S''
sI76
S'        raise KeyError'
p223
sI77
S''
sI78
S"    __str__ = __repr__ = lambda self: '<Row %s>' % self.as_dict(custom_types=[LazySet])"
p224
sI79
S''
sI80
S"    __int__ = lambda self: self.get('id')"
p225
ssg78
S"(self=<Row {'ccontentscomposition': '', 'containersize...tainer = 3)>, 'PGgroup': None, 'OpenDate': None}>, k='ContNum')"
p226
sg80
g20
sasS'pyver'
p227
S'Python 2.7.3: /Users/byoung/Desktop/web2py/web2py.app/Contents/MacOS/python (prefix: /Users/byoung/Desktop/web2py/web2py.app/Contents/Resources)'
p228
sS'session'
p229
g56
(S's\x1a\x00\x00\x00<div><table></table></div>'
tRp230
sS'etype'
p231
S"<type 'exceptions.KeyError'>"
p232
sS'date'
p233
S'Fri Feb 19 14:13:16 2016'
p234
sS'response'
p235
g56
(S'sW"\x00\x00<div><table><tr><td style="font-weight:bold;vertical-align:top;">body</td><td style="vertical-align:top;">:</td><td><div>&lt;cStringIO.StringO object at 0x10a1a0810&gt;</div></td></tr><tr><td style="font-weight:bold;vertical-align:top;">cookies</td><td style="vertical-align:top;">:</td><td><div><table><tr><td style="font-weight:bold;vertical-align:top;">session_id_chemwastepro</td><td style="vertical-align:top;">:</td><td><div>127.0.0.1-1c55a826-39dc-404e-a3f5-a7adc79a56f6<table><tr><td style="font-weight:bold;vertical-align:top;">comment</td><td style="vertical-align:top;">:</td><td><div></div></td></tr><tr><td style="font-weight:bold;vertical-align:top;">domain</td><td style="vertical-align:top;">:</td><td><div></div></td></tr><tr><td style="font-weight:bold;vertical-align:top;">expires</td><td style="vertical-align:top;">:</td><td><div></div></td></tr><tr><td style="font-weight:bold;vertical-align:top;">httponly</td><td style="vertical-align:top;">:</td><td><div></div></td></tr><tr><td style="font-weight:bold;vertical-align:top;">max-age</td><td style="vertical-align:top;">:</td><td><div></div></td></tr><tr><td style="font-weight:bold;vertical-align:top;">path</td><td style="vertical-align:top;">:</td><td><div>/</div></td></tr><tr><td style="font-weight:bold;vertical-align:top;">secure</td><td style="vertical-align:top;">:</td><td><div></div></td></tr><tr><td style="font-weight:bold;vertical-align:top;">version</td><td style="vertical-align:top;">:</td><td><div></div></td></tr></table></div></td></tr></table></div></td></tr><tr><td style="font-weight:bold;vertical-align:top;">delimiters</td><td style="vertical-align:top;">:</td><td><div><table><tr><td><div>{{</div></td></tr><tr><td><div>}}</div></td></tr></table></div></td></tr><tr><td style="font-weight:bold;vertical-align:top;">files</td><td style="vertical-align:top;">:</td><td><div><table></table></div></td></tr><tr><td style="font-weight:bold;vertical-align:top;">flash</td><td style="vertical-align:top;">:</td><td><div></div></td></tr><tr><td style="font-weight:bold;vertical-align:top;">form_label_separator</td><td style="vertical-align:top;">:</td><td><div></div></td></tr><tr><td style="font-weight:bold;vertical-align:top;">formstyle</td><td style="vertical-align:top;">:</td><td><div>bootstrap3_inline</div></td></tr><tr><td style="font-weight:bold;vertical-align:top;">generic_patterns</td><td style="vertical-align:top;">:</td><td><div><table><tr><td><div>*</div></td></tr></table></div></td></tr><tr><td style="font-weight:bold;vertical-align:top;">google_analytics_id</td><td style="vertical-align:top;">:</td><td><div>None</div></td></tr><tr><td style="font-weight:bold;vertical-align:top;">headers</td><td style="vertical-align:top;">:</td><td><div><table><tr><td style="font-weight:bold;vertical-align:top;">X-Powered-By</td><td style="vertical-align:top;">:</td><td><div>web2py</div></td></tr></table></div></td></tr><tr><td style="font-weight:bold;vertical-align:top;">logo</td><td style="vertical-align:top;">:</td><td><div></div></td></tr><tr><td style="font-weight:bold;vertical-align:top;">menu</td><td style="vertical-align:top;">:</td><td><div><table><tr><td><div><table><tr><td><div>Home</div></td></tr><tr><td><div>False</div></td></tr><tr><td><div>/chemwastepro/default/index</div></td></tr><tr><td><div><table></table></div></td></tr></table></div></td></tr><tr><td><div><table><tr><td><div>Inventory</div></td></tr><tr><td><div>False</div></td></tr><tr><td><div>#</div></td></tr><tr><td><div><table><tr><td><div><table><tr><td><div>Item</div></td></tr><tr><td><div>False</div></td></tr><tr><td><div>/chemwastepro/inventory/item</div></td></tr></table></div></td></tr><tr><td><div><li class="divider"></li></div></td></tr><tr><td><div><table><tr><td><div>Container</div></td></tr><tr><td><div>False</div></td></tr><tr><td><div>/chemwastepro/inventory/container</div></td></tr></table></div></td></tr><tr><td><div><li class="divider"></li></div></td></tr><tr><td><div><table><tr><td><div>Shipment</div></td></tr><tr><td><div>False</div></td></tr><tr><td><div>/chemwastepro/inventory/shipment</div></td></tr></table></div></td></tr><tr><td><div><table><tr><td><div>Chemical Index</div></td></tr><tr><td><div>False</div></td></tr><tr><td><div>/chemwastepro/inventory/chemindex</div></td></tr></table></div></td></tr></table></div></td></tr></table></div></td></tr><tr><td><div><table><tr><td><div>Reports</div></td></tr><tr><td><div>False</div></td></tr><tr><td><div>/chemwastepro/reports/item</div></td></tr></table></div></td></tr></table></div></td></tr><tr><td style="font-weight:bold;vertical-align:top;">meta</td><td style="vertical-align:top;">:</td><td><div><table><tr><td style="font-weight:bold;vertical-align:top;">author</td><td style="vertical-align:top;">:</td><td><div>Bruce Young &lt;brucedyoung@gmail.com&gt;</div></td></tr><tr><td style="font-weight:bold;vertical-align:top;">description</td><td style="vertical-align:top;">:</td><td><div>Open Hazardous Waste Management</div></td></tr><tr><td style="font-weight:bold;vertical-align:top;">generator</td><td style="vertical-align:top;">:</td><td><div>Web2py Web Framework</div></td></tr><tr><td style="font-weight:bold;vertical-align:top;">keywords</td><td style="vertical-align:top;">:</td><td><div>web2py, python, framework</div></td></tr></table></div></td></tr><tr><td style="font-weight:bold;vertical-align:top;">models_to_run</td><td style="vertical-align:top;">:</td><td><div><table><tr><td><div>^\\w+\\.py$</div></td></tr><tr><td><div>^inventory/\\w+\\.py$</div></td></tr><tr><td><div>^inventory/item/\\w+\\.py$</div></td></tr></table></div></td></tr><tr><td style="font-weight:bold;vertical-align:top;">postprocessing</td><td style="vertical-align:top;">:</td><td><div><table></table></div></td></tr><tr><td style="font-weight:bold;vertical-align:top;">session_client</td><td style="vertical-align:top;">:</td><td><div>127.0.0.1</div></td></tr><tr><td style="font-weight:bold;vertical-align:top;">session_cookie_compression_level</td><td style="vertical-align:top;">:</td><td><div>None</div></td></tr><tr><td style="font-weight:bold;vertical-align:top;">session_cookie_expires</td><td style="vertical-align:top;">:</td><td><div>None</div></td></tr><tr><td style="font-weight:bold;vertical-align:top;">session_cookie_key</td><td style="vertical-align:top;">:</td><td><div>None</div></td></tr><tr><td style="font-weight:bold;vertical-align:top;">session_data_name</td><td style="vertical-align:top;">:</td><td><div>session_data_chemwastepro</div></td></tr><tr><td style="font-weight:bold;vertical-align:top;">session_file</td><td style="vertical-align:top;">:</td><td><div>&lt;open file &#x27;/Users/byoung/Desktop/web2py/web2py.app/Contents/Resources/applications/chemwastepro/sessions/00b/1c8/127.0.0.1-1c55a826-39dc-404e-a3f5-a7adc79a56f6&#x27;, mode &#x27;rb+&#x27; at 0x10c53ac00&gt;</div></td></tr><tr><td style="font-weight:bold;vertical-align:top;">session_filename</td><td style="vertical-align:top;">:</td><td><div>/Users/byoung/Desktop/web2py/web2py.app/Contents/Resources/applications/chemwastepro/sessions/127.0.0.1-1c55a826-39dc-404e-a3f5-a7adc79a56f6</div></td></tr><tr><td style="font-weight:bold;vertical-align:top;">session_hash</td><td style="vertical-align:top;">:</td><td><div>a5ae55dbc4f4dde69e33c96084f2328c</div></td></tr><tr><td style="font-weight:bold;vertical-align:top;">session_id</td><td style="vertical-align:top;">:</td><td><div>127.0.0.1-1c55a826-39dc-404e-a3f5-a7adc79a56f6</div></td></tr><tr><td style="font-weight:bold;vertical-align:top;">session_id_name</td><td style="vertical-align:top;">:</td><td><div>session_id_chemwastepro</div></td></tr><tr><td style="font-weight:bold;vertical-align:top;">session_locked</td><td style="vertical-align:top;">:</td><td><div>True</div></td></tr><tr><td style="font-weight:bold;vertical-align:top;">session_masterapp</td><td style="vertical-align:top;">:</td><td><div>chemwastepro</div></td></tr><tr><td style="font-weight:bold;vertical-align:top;">session_new</td><td style="vertical-align:top;">:</td><td><div>False</div></td></tr><tr><td style="font-weight:bold;vertical-align:top;">session_storage_type</td><td style="vertical-align:top;">:</td><td><div>file</div></td></tr><tr><td style="font-weight:bold;vertical-align:top;">status</td><td style="vertical-align:top;">:</td><td><div>200</div></td></tr><tr><td style="font-weight:bold;vertical-align:top;">subtitle</td><td style="vertical-align:top;">:</td><td><div></div></td></tr><tr><td style="font-weight:bold;vertical-align:top;">title</td><td style="vertical-align:top;">:</td><td><div>Chemwastepro</div></td></tr><tr><td style="font-weight:bold;vertical-align:top;">view</td><td style="vertical-align:top;">:</td><td><div>inventory/item.html</div></td></tr></table></div>'
tRp236
sS'locals'
p237
(dp238
S'e'
S'None'
p239
sS'k'
S"'ContNum'"
p240
sS'm'
S'None'
p241
sS'self'
p242
S"<Row {'ccontentscomposition': '', 'containersize...tainer = 3)>, 'PGgroup': None, 'OpenDate': None}>"
p243
sS'key'
p244
S"'ContNum'"
p245
sS'_extra'
p246
S'None'
p247
sssS'traceback'
p248
S'Traceback (most recent call last):\n  File "/Users/byoung/Desktop/web2py/web2py.app/Contents/Resources/gluon/restricted.py", line 227, in restricted\n  File "/Users/byoung/Desktop/web2py/web2py.app/Contents/Resources/applications/chemwastepro/controllers/inventory.py", line 180, in <module>\n  File "/Users/byoung/Desktop/web2py/web2py.app/Contents/Resources/gluon/globals.py", line 412, in <lambda>\n  File "/Users/byoung/Desktop/web2py/web2py.app/Contents/Resources/applications/chemwastepro/controllers/inventory.py", line 30, in item\n  File "/Users/byoung/Desktop/web2py/web2py.app/Contents/Resources/gluon/packages/dal/pydal/objects.py", line 2700, in <genexpr>\n  File "/Users/byoung/Desktop/web2py/web2py.app/Contents/Resources/gluon/packages/dal/pydal/objects.py", line 2717, in render\n  File "/Users/byoung/Desktop/web2py/web2py.app/Contents/Resources/gluon/packages/dal/pydal/base.py", line 1076, in represent\n  File "/Users/byoung/Desktop/web2py/web2py.app/Contents/Resources/gluon/sqlhtml.py", line 68, in represent\n  File "/Users/byoung/Desktop/web2py/web2py.app/Contents/Resources/gluon/packages/dal/pydal/helpers/methods.py", line 265, in __call__\n  File "/Users/byoung/Desktop/web2py/web2py.app/Contents/Resources/gluon/packages/dal/pydal/helpers/methods.py", line 253, in _fieldformat\n  File "/Users/byoung/Desktop/web2py/web2py.app/Contents/Resources/gluon/packages/dal/pydal/objects.py", line 76, in __getitem__\nKeyError\n'
p249
s.