(dp1
S'output'
p2
S'<class \'gluon.contrib.pymysql.err.InternalError\'> (1054, u"Unknown column \'db.shipment.id\' in \'field list\'")'
p3
sS'layer'
p4
S'/Users/byoung/Desktop/web2py/web2py.app/Contents/Resources/applications/chemwastepro/controllers/serverprocessing.py'
p5
sS'code'
p6
S'# -*- coding: utf-8 -*-\n# try something like\n\nimport json\nimport cwp_functions\ndef chemindex(): \n    icon="""<a href="""+URL(\'inventory\',\'shipmentedit\')+"""/%s><div class="col-md-3 col-sm-4"><i class="fa fa-fw fa-edit"></i></div></a>"""\n    tablecount = db(db.chemindex).count()\n    icon = "%s"\n\n    rows = db(db.chemindex.id<10).select(db.chemindex.id,db.chemindex.chemname,db.chemindex.group_,db.chemindex.state,db.chemindex.tsdf,db.chemindex.treatment,db.chemindex.hazwastecodes)\n    rowscount = len(rows)\n    chemindex = """{"draw": 1,"recordsTotal": """+str(tablecount)+""","recordsFiltered": """+str(rowscount)+""","data":"""\n    chemindex += json.dumps([dict(id=r.id,chemname=r.chemname,group=r.group_,state=r.state,disposalcode=r.id,tsdf=r.tsdf,treatment=r.treatment,hazard=r.id,hazwastecodes=r.hazwastecodes,editlink=icon  % r.id) for r in rows.render()])#adding render to use represented view of fields\n    #chemindex = json.dumps([dict(id=r.id,chemname=r.chemname,group=r.group_,state=r.state,disposalcode=r.id,tsdf=r.tsdf,treatment=r.treatment,hazard=r.id,hazwastecodes=r.hazwastecodes,editlink=icon  % r.id) for r in rows.render()])#adding render to use\n    chemindex += """}"""\n    return (chemindex)\ndef shipment():\n    fields = "db.shipment.id, db.shipment.manifest"\n    #Receive datatables parameters\n    if(request.vars.start):\n        dtstart = int(request.vars.start)#sanitation of input\n    if(request.vars.length):\n        dtlength = int(request.vars.length)\n    if(request.vars.search):\n        dtsearch = int(request.vars.search)  \n    if(request.vars.order):\n        dtsearch = int(request.vars.search)  \n    tablecount = db(db.shipment).count()\n    #Add to select orderby=myorder\n    rows = db(db.shipment.id>0).select(fields)\n    rowscount = len(rows)\n    #icon="""<a href="""+URL(\'inventory\',\'shipmentedit\')+"""/%s><div class="col-md-3 col-sm-4"><i class="fa fa-fw fa-edit"></i></div></a>"""\n    icon = "%s"\n    shipment = """{"draw": 1,"recordsTotal": """+str(tablecount)+""","recordsFiltered": """+str(rowscount)+""","data":"""\n    shipment += json.dumps([dict(id=r.id,manifest=r.manifest,editlink=icon  % r.id) for r in rows.render()])#adding render to use represented view of fields\n    #shipment += json.dumps(dict(id=r.id,manifest=r.manifest,editlink=icon  % r.id) for r in rows.render())#adding render to use represented view of fields\n    shipment += """}"""\n               \n    return (shipment) \n\n                           \n                           \n    #shipment = json.dumps([dict(id=r.id,manifest=r.manifest,editlink=icon  % r.id) for r in rows.render()])#adding render to use represented view of fields\n\nresponse._vars=response._caller(shipment)\n'
p7
sS'snapshot'
p8
(dp9
sS'traceback'
p10
S'Traceback (most recent call last):\n  File "/Users/byoung/Desktop/web2py/web2py.app/Contents/Resources/gluon/restricted.py", line 227, in restricted\n  File "/Users/byoung/Desktop/web2py/web2py.app/Contents/Resources/applications/chemwastepro/controllers/serverprocessing.py", line 46, in <module>\n  File "/Users/byoung/Desktop/web2py/web2py.app/Contents/Resources/gluon/globals.py", line 417, in <lambda>\n  File "/Users/byoung/Desktop/web2py/web2py.app/Contents/Resources/applications/chemwastepro/controllers/serverprocessing.py", line 31, in shipment\n  File "/Users/byoung/Desktop/web2py/web2py.app/Contents/Resources/gluon/packages/dal/pydal/objects.py", line 2020, in select\n  File "/Users/byoung/Desktop/web2py/web2py.app/Contents/Resources/gluon/packages/dal/pydal/adapters/base.py", line 1296, in select\n  File "/Users/byoung/Desktop/web2py/web2py.app/Contents/Resources/gluon/packages/dal/pydal/adapters/base.py", line 1253, in _select_aux\n  File "/Users/byoung/Desktop/web2py/web2py.app/Contents/Resources/gluon/packages/dal/pydal/adapters/base.py", line 1388, in execute\n  File "/Users/byoung/Desktop/web2py/web2py.app/Contents/Resources/gluon/packages/dal/pydal/adapters/base.py", line 1382, in log_execute\n  File "/Users/byoung/Desktop/web2py/web2py.app/Contents/Resources/gluon/contrib/pymysql/cursors.py", line 117, in execute\n  File "/Users/byoung/Desktop/web2py/web2py.app/Contents/Resources/gluon/contrib/pymysql/connections.py", line 202, in defaulterrorhandler\nInternalError: (1054, u"Unknown column \'db.shipment.id\' in \'field list\'")\n'
p11
s.