(dp1
S'output'
p2
S"<type 'exceptions.TypeError'> len() takes exactly one argument (0 given)"
p3
sS'layer'
p4
S'/Users/byoung/Desktop/web2py/web2py.app/Contents/Resources/applications/chemwastepro/controllers/serverprocessing.py'
p5
sS'code'
p6
S'# -*- coding: utf-8 -*-\n# This is for the Datatables Service Side Processing\n# Expects ajax calls, returns json\n\nimport json\nimport cwp_functions\ndef chemindex(): \n    icon="""<a href="""+URL(\'inventory\',\'shipmentedit\')+"""/%s><div class="col-md-3 col-sm-4"><i class="fa fa-fw fa-edit"></i></div></a>"""\n    tablecount = db(db.chemindex).count()\n    icon = "%s"\n\n    rows = db(db.chemindex.id<10).select(db.chemindex.id,db.chemindex.chemname,db.chemindex.group_,db.chemindex.state,db.chemindex.tsdf,db.chemindex.treatment,db.chemindex.hazwastecodes)\n    rowscount = len(rows)\n    chemindex = """{"draw": 1,"recordsTotal": """+str(tablecount)+""","recordsFiltered": """+str(rowscount)+""","data":"""\n    chemindex += json.dumps([dict(id=r.id,chemname=r.chemname,group=r.group_,state=r.state,disposalcode=r.id,tsdf=r.tsdf,treatment=r.treatment,hazard=r.id,hazwastecodes=r.hazwastecodes,editlink=icon  % r.id) for r in rows.render()])#adding render to use represented view of fields\n    #chemindex = json.dumps([dict(id=r.id,chemname=r.chemname,group=r.group_,state=r.state,disposalcode=r.id,tsdf=r.tsdf,treatment=r.treatment,hazard=r.id,hazwastecodes=r.hazwastecodes,editlink=icon  % r.id) for r in rows.render()])#adding render to use\n    chemindex += """}"""\n    return (chemindex)\ndef shipment():\n  \n    fields=[\'id\',\'manifest\']\n    textfields=[\'manifest\']\n    orderfields = [\'id\',\'manifest\']#Statically set column list. Could use Datatables return instead\n    sel=[db.shipment[field] for field in fields] \n    #orderby = [db.shipment[orderfield] for orderfield in orderfields] #could be used for multi-level sort\n    orderby = [db.shipment[orderfields[1]]] \n    #Receive datatables parameters\n    if(request.vars.draw):#pass this back to increment\n        drawint=int(request.vars.draw)\n    else:\n        drawint=0\n    if(request.vars.start):\n        dtstart = int(request.vars.start)#sanitation of input to int\n    else:\n        dtstart=0\n    if(request.vars.length):\n        dtlength = int(request.vars.length)\n    else:\n        dtlength=100\n    #Search Value\n    searchval=request.vars.get(\'search[value]\', None) \n    if(searchval):\n        dtsearch = searchval\n    else:\n        dtsearch=\'\'\n        \n    #Order Column\n    ordercol=request.vars.get(\'order[0][column]\', None) \n    if(ordercol):\n        #get the column number\n        dtorder = int(ordercol)\n        #get the order direction\n\n        #Order Direction\n        orderdir=request.vars.get(\'order[0][dir]\', None) \n        if (orderdir=="asc"):\n            #build order statement - this is for single sort. Could implement multisort\n           orderby = [db.shipment[orderfields[dtorder]]]\n        else:\n           orderby = [~db.shipment[orderfields[dtorder]]]\n    else:\n        dtorder=\'0\'\n    tablecount = db(db.shipment).count()\n    #Add to select orderby=myorder\n    #Sample:        #    #orderby=\'sum(items.price)  desc\',limitby=(0,10)\n    #Default Query\n    if (dtsearch):\n        query=[db.shipment[field].contains(dtsearch) for textfield in textfields] \n    else:\n        query=[db.shipment]\n    rowsc = db(*query).select(*sel, orderby=orderby)#, limitby=(dtstart,dtlength)\n    rows = db(*query).select(*sel, orderby=orderby, limitby=(dtstart,dtlength))\n    len()\n    rowscount=len(rowsc)\n    #Custom Query\n    #\'\'.join(\'%s dtsearch % level for level in fields)\n    #db.mytable.myfield.contains(\'value\')\n    #rows = db(db.shipment.id=="something").select(*sel, orderby=orderby, limitby=(dtstart,dtlength))\n    \n    \n    #icon="""<a href="""+URL(\'inventory\',\'shipmentedit\')+"""/%s><div class="col-md-3 col-sm-4"><i class="fa fa-fw fa-edit"></i></div></a>"""\n    icon = str(dtorder)+"%s"\n    #Use for row in rows[0:10].render()\n    # iTotalRecords = total records without any filtering/limits\n    #iTotalDisplayRecords = filtered result count\n    shipment = """{"draw": """+str(drawint)+""", "recordsTotal": """+str(tablecount)+""", "recordsFiltered": """+str(rowscount)+""","data":"""\n    shipment += json.dumps([dict(id=r.id,manifest=r.manifest,editlink=icon  % r.id) for r in rows.render()])#adding render to use represented view of fields\n    #shipment += json.dumps(dict(id=r.id,manifest=r.manifest,editlink=icon  % r.id) for r in rows.render())#adding render to use represented view of fields\n    shipment += """}"""\n               \n    return (shipment) \n\n                           \n                           \n    #shipment = json.dumps([dict(id=r.id,manifest=r.manifest,editlink=icon  % r.id) for r in rows.render()])#adding render to use represented view of fields\n\nresponse._vars=response._caller(shipment)\n'
p7
sS'snapshot'
p8
(dp9
S'exception'
p10
(dp11
S'__hash__'
p12
S"<method-wrapper '__hash__' of exceptions.TypeError object>"
p13
sS'__setattr__'
p14
S"<method-wrapper '__setattr__' of exceptions.TypeError object>"
p15
sS'__reduce_ex__'
p16
S'<built-in method __reduce_ex__ of exceptions.TypeError object>'
p17
sS'__getslice__'
p18
S"<method-wrapper '__getslice__' of exceptions.TypeError object>"
p19
sS'__getitem__'
p20
S"<method-wrapper '__getitem__' of exceptions.TypeError object>"
p21
sS'__setstate__'
p22
S'<built-in method __setstate__ of exceptions.TypeError object>'
p23
sS'args'
p24
S"('len() takes exactly one argument (0 given)',)"
p25
sS'__reduce__'
p26
S'<built-in method __reduce__ of exceptions.TypeError object>'
p27
sS'__str__'
p28
S"<method-wrapper '__str__' of exceptions.TypeError object>"
p29
sS'__format__'
p30
S'<built-in method __format__ of exceptions.TypeError object>'
p31
sS'__getattribute__'
p32
S"<method-wrapper '__getattribute__' of exceptions.TypeError object>"
p33
sS'__class__'
p34
S"<type 'exceptions.TypeError'>"
p35
sS'__unicode__'
p36
S'<built-in method __unicode__ of exceptions.TypeError object>'
p37
sS'__delattr__'
p38
S"<method-wrapper '__delattr__' of exceptions.TypeError object>"
p39
sS'__subclasshook__'
p40
S'<built-in method __subclasshook__ of type object>'
p41
sS'__repr__'
p42
S"<method-wrapper '__repr__' of exceptions.TypeError object>"
p43
sS'__dict__'
p44
S'{}'
p45
sS'__sizeof__'
p46
S'<built-in method __sizeof__ of exceptions.TypeError object>'
p47
sS'__doc__'
p48
S"'Inappropriate argument type.'"
p49
sS'__init__'
p50
S"<method-wrapper '__init__' of exceptions.TypeError object>"
p51
sS'__new__'
p52
S'<built-in method __new__ of type object>'
p53
ssS'evalue'
p54
S'len() takes exactly one argument (0 given)'
p55
sS'request'
p56
cgluon.html
XML_unpickle
p57
(S's"]\x00\x00<div><table><tr><td style="font-weight:bold;vertical-align:top;">ajax</td><td style="vertical-align:top;">:</td><td><div>False</div></td></tr><tr><td style="font-weight:bold;vertical-align:top;">application</td><td style="vertical-align:top;">:</td><td><div>chemwastepro</div></td></tr><tr><td style="font-weight:bold;vertical-align:top;">args</td><td style="vertical-align:top;">:</td><td><div><table></table></div></td></tr><tr><td style="font-weight:bold;vertical-align:top;">cid</td><td style="vertical-align:top;">:</td><td><div>None</div></td></tr><tr><td style="font-weight:bold;vertical-align:top;">client</td><td style="vertical-align:top;">:</td><td><div>127.0.0.1</div></td></tr><tr><td style="font-weight:bold;vertical-align:top;">controller</td><td style="vertical-align:top;">:</td><td><div>serverprocessing</div></td></tr><tr><td style="font-weight:bold;vertical-align:top;">cookies</td><td style="vertical-align:top;">:</td><td><div><table><tr><td style="font-weight:bold;vertical-align:top;">session_id_admin</td><td style="vertical-align:top;">:</td><td><div>127.0.0.1-978e3300-ef3c-4d4c-9389-11fa943f7b64<table><tr><td style="font-weight:bold;vertical-align:top;">comment</td><td style="vertical-align:top;">:</td><td><div></div></td></tr><tr><td style="font-weight:bold;vertical-align:top;">domain</td><td style="vertical-align:top;">:</td><td><div></div></td></tr><tr><td style="font-weight:bold;vertical-align:top;">expires</td><td style="vertical-align:top;">:</td><td><div></div></td></tr><tr><td style="font-weight:bold;vertical-align:top;">httponly</td><td style="vertical-align:top;">:</td><td><div></div></td></tr><tr><td style="font-weight:bold;vertical-align:top;">max-age</td><td style="vertical-align:top;">:</td><td><div></div></td></tr><tr><td style="font-weight:bold;vertical-align:top;">path</td><td style="vertical-align:top;">:</td><td><div></div></td></tr><tr><td style="font-weight:bold;vertical-align:top;">secure</td><td style="vertical-align:top;">:</td><td><div></div></td></tr><tr><td style="font-weight:bold;vertical-align:top;">version</td><td style="vertical-align:top;">:</td><td><div></div></td></tr></table></div></td></tr><tr><td style="font-weight:bold;vertical-align:top;">session_id_chemwastepro</td><td style="vertical-align:top;">:</td><td><div>127.0.0.1-01cbcd42-0920-4f73-befe-12de2ffe8d4b<table><tr><td style="font-weight:bold;vertical-align:top;">comment</td><td style="vertical-align:top;">:</td><td><div></div></td></tr><tr><td style="font-weight:bold;vertical-align:top;">domain</td><td style="vertical-align:top;">:</td><td><div></div></td></tr><tr><td style="font-weight:bold;vertical-align:top;">expires</td><td style="vertical-align:top;">:</td><td><div></div></td></tr><tr><td style="font-weight:bold;vertical-align:top;">httponly</td><td style="vertical-align:top;">:</td><td><div></div></td></tr><tr><td style="font-weight:bold;vertical-align:top;">max-age</td><td style="vertical-align:top;">:</td><td><div></div></td></tr><tr><td style="font-weight:bold;vertical-align:top;">path</td><td style="vertical-align:top;">:</td><td><div></div></td></tr><tr><td style="font-weight:bold;vertical-align:top;">secure</td><td style="vertical-align:top;">:</td><td><div></div></td></tr><tr><td style="font-weight:bold;vertical-align:top;">version</td><td style="vertical-align:top;">:</td><td><div></div></td></tr></table></div></td></tr><tr><td style="font-weight:bold;vertical-align:top;">session_id_welcome</td><td style="vertical-align:top;">:</td><td><div>127.0.0.1-8284f6f7-2463-43a0-b5a2-cb32281c4601<table><tr><td style="font-weight:bold;vertical-align:top;">comment</td><td style="vertical-align:top;">:</td><td><div></div></td></tr><tr><td style="font-weight:bold;vertical-align:top;">domain</td><td style="vertical-align:top;">:</td><td><div></div></td></tr><tr><td style="font-weight:bold;vertical-align:top;">expires</td><td style="vertical-align:top;">:</td><td><div></div></td></tr><tr><td style="font-weight:bold;vertical-align:top;">httponly</td><td style="vertical-align:top;">:</td><td><div></div></td></tr><tr><td style="font-weight:bold;vertical-align:top;">max-age</td><td style="vertical-align:top;">:</td><td><div></div></td></tr><tr><td style="font-weight:bold;vertical-align:top;">path</td><td style="vertical-align:top;">:</td><td><div></div></td></tr><tr><td style="font-weight:bold;vertical-align:top;">secure</td><td style="vertical-align:top;">:</td><td><div></div></td></tr><tr><td style="font-weight:bold;vertical-align:top;">version</td><td style="vertical-align:top;">:</td><td><div></div></td></tr></table></div></td></tr></table></div></td></tr><tr><td style="font-weight:bold;vertical-align:top;">env</td><td style="vertical-align:top;">:</td><td><div><table><tr><td style="font-weight:bold;vertical-align:top;">HTTP_ACCEPT</td><td style="vertical-align:top;">:</td><td><div>text/html,application/xhtml+xml,application/xml;q=0.9,image/webp,*/*;q=0.8</div></td></tr><tr><td style="font-weight:bold;vertical-align:top;">HTTP_ACCEPT_ENCODING</td><td style="vertical-align:top;">:</td><td><div>gzip, deflate, sdch, br</div></td></tr><tr><td style="font-weight:bold;vertical-align:top;">HTTP_ACCEPT_LANGUAGE</td><td style="vertical-align:top;">:</td><td><div>en-US,en;q=0.8,ms;q=0.6</div></td></tr><tr><td style="font-weight:bold;vertical-align:top;">HTTP_CACHE_CONTROL</td><td style="vertical-align:top;">:</td><td><div>max-age=0</div></td></tr><tr><td style="font-weight:bold;vertical-align:top;">HTTP_CONNECTION</td><td style="vertical-align:top;">:</td><td><div>keep-alive</div></td></tr><tr><td style="font-weight:bold;vertical-align:top;">HTTP_COOKIE</td><td style="vertical-align:top;">:</td><td><div>session_id_welcome=127.0.0.1-8284f6f7-2463-43a0-b5a2-cb32281c4601; session_id_chemwastepro=127.0.0.1-01cbcd42-0920-4f73-befe-12de2ffe8d4b; session_id_admin=127.0.0.1-978e3300-ef3c-4d4c-9389-11fa943f7b64</div></td></tr><tr><td style="font-weight:bold;vertical-align:top;">HTTP_HOST</td><td style="vertical-align:top;">:</td><td><div>127.0.0.1:8000</div></td></tr><tr><td style="font-weight:bold;vertical-align:top;">HTTP_UPGRADE_INSECURE_REQUESTS</td><td style="vertical-align:top;">:</td><td><div>1</div></td></tr><tr><td style="font-weight:bold;vertical-align:top;">HTTP_USER_AGENT</td><td style="vertical-align:top;">:</td><td><div>Mozilla/5.0 (Macintosh; Intel Mac OS X 10_12_2) AppleWebKit/537.36 (KHTML, like Gecko) Chrome/56.0.2924.87 Safari/537.36</div></td></tr><tr><td style="font-weight:bold;vertical-align:top;">PATH_INFO</td><td style="vertical-align:top;">:</td><td><div>/chemwastepro/serverprocessing/shipment</div></td></tr><tr><td style="font-weight:bold;vertical-align:top;">QUERY_STRING</td><td style="vertical-align:top;">:</td><td><div></div></td></tr><tr><td style="font-weight:bold;vertical-align:top;">REMOTE_ADDR</td><td style="vertical-align:top;">:</td><td><div>127.0.0.1</div></td></tr><tr><td style="font-weight:bold;vertical-align:top;">REMOTE_PORT</td><td style="vertical-align:top;">:</td><td><div>62122</div></td></tr><tr><td style="font-weight:bold;vertical-align:top;">REQUEST_METHOD</td><td style="vertical-align:top;">:</td><td><div>GET</div></td></tr><tr><td style="font-weight:bold;vertical-align:top;">SCRIPT_NAME</td><td style="vertical-align:top;">:</td><td><div></div></td></tr><tr><td style="font-weight:bold;vertical-align:top;">SERVER_NAME</td><td style="vertical-align:top;">:</td><td><div>M1PDG8WL</div></td></tr><tr><td style="font-weight:bold;vertical-align:top;">SERVER_PORT</td><td style="vertical-align:top;">:</td><td><div>8000</div></td></tr><tr><td style="font-weight:bold;vertical-align:top;">SERVER_PROTOCOL</td><td style="vertical-align:top;">:</td><td><div>HTTP/1.1</div></td></tr><tr><td style="font-weight:bold;vertical-align:top;">SERVER_SOFTWARE</td><td style="vertical-align:top;">:</td><td><div>Rocket 1.2.6</div></td></tr><tr><td style="font-weight:bold;vertical-align:top;">app_folders</td><td style="vertical-align:top;">:</td><td><div>set([&#x27;/Users/byoung/Desktop/web2py/web2py.app/Contents/Resources/applications/admin/&#x27;, &#x27;/Users/byoung/Desktop/web2py/web2py.app/Contents/Resources/applications/welcome/&#x27;, &#x27;/Users/byoung/Desktop/web2py/web2py.app/Contents/Resources/applications/chemwastepro/&#x27;])</div></td></tr><tr><td style="font-weight:bold;vertical-align:top;">applications_parent</td><td style="vertical-align:top;">:</td><td><div>/Users/byoung/Desktop/web2py/web2py.app/Contents/Resources</div></td></tr><tr><td style="font-weight:bold;vertical-align:top;">cmd_args</td><td style="vertical-align:top;">:</td><td><div><table></table></div></td></tr><tr><td style="font-weight:bold;vertical-align:top;">cmd_options</td><td style="vertical-align:top;">:</td><td><div>&lt;Values at 0x105ba0ef0: {&#x27;verbose&#x27;: False, &#x27;ip&#x27;: &#x27;127.0.0.1&#x27;, &#x27;debuglevel&#x27;: 30, &#x27;with_scheduler&#x27;: False, &#x27;shutdown_timeout&#x27;: 5, &#x27;taskbar&#x27;: False, &#x27;with_coverage&#x27;: False, &#x27;pid_filename&#x27;: &#x27;httpserver.pid&#x27;, &#x27;maxthreads&#x27;: None, &#x27;softcron&#x27;: False, &#x27;server_name&#x27;: &#x27;M1PDG8WL&#x27;, &#x27;bpython&#x27;: False, &#x27;nogui&#x27;: False, &#x27;port&#x27;: 8000, &#x27;print_errors&#x27;: False, &#x27;extcron&#x27;: False, &#x27;runcron&#x27;: False, &#x27;run_system_tests&#x27;: False, &#x27;test&#x27;: None, &#x27;folder&#x27;: &#x27;/Users/byoung/Desktop/web2py/web2py.app/Contents/Resources&#x27;, &#x27;config&#x27;: &#x27;&#x27;, &#x27;minthreads&#x27;: None, &#x27;shell&#x27;: None, &#x27;run&#x27;: &#x27;&#x27;, &#x27;log_filename&#x27;: &#x27;httpserver.log&#x27;, &#x27;profiler_dir&#x27;: None, &#x27;args&#x27;: [&#x27;&#x27;], &#x27;socket_timeout&#x27;: 5, &#x27;ssl_ca_certificate&#x27;: None, &#x27;scheduler&#x27;: None, &#x27;interfaces&#x27;: None, &#x27;ssl_private_key&#x27;: &#x27;&#x27;, &#x27;gae&#x27;: None, &#x27;password&#x27;: &#x27;******&#x27;, &#x27;request_queue_size&#x27;: 5, &#x27;ssl_certificate&#x27;: &#x27;&#x27;, &#x27;cronjob&#x27;: False, &#x27;numthreads&#x27;: None, &#x27;quiet&#x27;: False, &#x27;import_models&#x27;: False, &#x27;timeout&#x27;: 10, &#x27;plain&#x27;: False, &#x27;nobanner&#x27;: False}&gt;</div></td></tr><tr><td style="font-weight:bold;vertical-align:top;">db_sessions</td><td style="vertical-align:top;">:</td><td><div>set([])</div></td></tr><tr><td style="font-weight:bold;vertical-align:top;">debugging</td><td style="vertical-align:top;">:</td><td><div>True</div></td></tr><tr><td style="font-weight:bold;vertical-align:top;">gluon_parent</td><td style="vertical-align:top;">:</td><td><div>/Users/byoung/Desktop/web2py/web2py.app/Contents/Resources</div></td></tr><tr><td style="font-weight:bold;vertical-align:top;">http_accept</td><td style="vertical-align:top;">:</td><td><div>text/html,application/xhtml+xml,application/xml;q=0.9,image/webp,*/*;q=0.8</div></td></tr><tr><td style="font-weight:bold;vertical-align:top;">http_accept_encoding</td><td style="vertical-align:top;">:</td><td><div>gzip, deflate, sdch, br</div></td></tr><tr><td style="font-weight:bold;vertical-align:top;">http_accept_language</td><td style="vertical-align:top;">:</td><td><div>en-US,en;q=0.8,ms;q=0.6</div></td></tr><tr><td style="font-weight:bold;vertical-align:top;">http_cache_control</td><td style="vertical-align:top;">:</td><td><div>max-age=0</div></td></tr><tr><td style="font-weight:bold;vertical-align:top;">http_connection</td><td style="vertical-align:top;">:</td><td><div>keep-alive</div></td></tr><tr><td style="font-weight:bold;vertical-align:top;">http_cookie</td><td style="vertical-align:top;">:</td><td><div>session_id_welcome=127.0.0.1-8284f6f7-2463-43a0-b5a2-cb32281c4601; session_id_chemwastepro=127.0.0.1-01cbcd42-0920-4f73-befe-12de2ffe8d4b; session_id_admin=127.0.0.1-978e3300-ef3c-4d4c-9389-11fa943f7b64</div></td></tr><tr><td style="font-weight:bold;vertical-align:top;">http_host</td><td style="vertical-align:top;">:</td><td><div>127.0.0.1:8000</div></td></tr><tr><td style="font-weight:bold;vertical-align:top;">http_upgrade_insecure_requests</td><td style="vertical-align:top;">:</td><td><div>1</div></td></tr><tr><td style="font-weight:bold;vertical-align:top;">http_user_agent</td><td style="vertical-align:top;">:</td><td><div>Mozilla/5.0 (Macintosh; Intel Mac OS X 10_12_2) AppleWebKit/537.36 (KHTML, like Gecko) Chrome/56.0.2924.87 Safari/537.36</div></td></tr><tr><td style="font-weight:bold;vertical-align:top;">is_jython</td><td style="vertical-align:top;">:</td><td><div>False</div></td></tr><tr><td style="font-weight:bold;vertical-align:top;">is_pypy</td><td style="vertical-align:top;">:</td><td><div>False</div></td></tr><tr><td style="font-weight:bold;vertical-align:top;">is_source</td><td style="vertical-align:top;">:</td><td><div>True</div></td></tr><tr><td style="font-weight:bold;vertical-align:top;">local_hosts</td><td style="vertical-align:top;">:</td><td><div><table><tr><td><div>::1</div></td></tr><tr><td><div>M1PDG8WL</div></td></tr><tr><td><div>::ffff:127.0.0.1</div></td></tr><tr><td><div>127.0.0.1</div></td></tr></table></div></td></tr><tr><td style="font-weight:bold;vertical-align:top;">path_info</td><td style="vertical-align:top;">:</td><td><div>/chemwastepro/serverprocessing/shipment</div></td></tr><tr><td style="font-weight:bold;vertical-align:top;">query_string</td><td style="vertical-align:top;">:</td><td><div></div></td></tr><tr><td style="font-weight:bold;vertical-align:top;">remote_addr</td><td style="vertical-align:top;">:</td><td><div>127.0.0.1</div></td></tr><tr><td style="font-weight:bold;vertical-align:top;">remote_port</td><td style="vertical-align:top;">:</td><td><div>62122</div></td></tr><tr><td style="font-weight:bold;vertical-align:top;">request_method</td><td style="vertical-align:top;">:</td><td><div>GET</div></td></tr><tr><td style="font-weight:bold;vertical-align:top;">request_uri</td><td style="vertical-align:top;">:</td><td><div>/chemwastepro/serverprocessing/shipment</div></td></tr><tr><td style="font-weight:bold;vertical-align:top;">script_name</td><td style="vertical-align:top;">:</td><td><div></div></td></tr><tr><td style="font-weight:bold;vertical-align:top;">server_name</td><td style="vertical-align:top;">:</td><td><div>M1PDG8WL</div></td></tr><tr><td style="font-weight:bold;vertical-align:top;">server_port</td><td style="vertical-align:top;">:</td><td><div>8000</div></td></tr><tr><td style="font-weight:bold;vertical-align:top;">server_protocol</td><td style="vertical-align:top;">:</td><td><div>HTTP/1.1</div></td></tr><tr><td style="font-weight:bold;vertical-align:top;">server_software</td><td style="vertical-align:top;">:</td><td><div>Rocket 1.2.6</div></td></tr><tr><td style="font-weight:bold;vertical-align:top;">web2py_path</td><td style="vertical-align:top;">:</td><td><div>/Users/byoung/Desktop/web2py/web2py.app/Contents/Resources</div></td></tr><tr><td style="font-weight:bold;vertical-align:top;">web2py_version</td><td style="vertical-align:top;">:</td><td><div>2.14.6-stable+timestamp.2016.05.10.00.21.47</div></td></tr><tr><td style="font-weight:bold;vertical-align:top;">wsgi.errors</td><td style="vertical-align:top;">:</td><td><div>&lt;open file &#x27;&lt;stderr&gt;&#x27;, mode &#x27;w&#x27; at 0x1000ae270&gt;</div></td></tr><tr><td style="font-weight:bold;vertical-align:top;">wsgi.file_wrapper</td><td style="vertical-align:top;">:</td><td><div>&lt;class wsgiref.util.FileWrapper at 0x105b93328&gt;</div></td></tr><tr><td style="font-weight:bold;vertical-align:top;">wsgi.input</td><td style="vertical-align:top;">:</td><td><div>&lt;socket._fileobject object at 0x10da861d0&gt;</div></td></tr><tr><td style="font-weight:bold;vertical-align:top;">wsgi.multiprocess</td><td style="vertical-align:top;">:</td><td><div>False</div></td></tr><tr><td style="font-weight:bold;vertical-align:top;">wsgi.multithread</td><td style="vertical-align:top;">:</td><td><div>True</div></td></tr><tr><td style="font-weight:bold;vertical-align:top;">wsgi.run_once</td><td style="vertical-align:top;">:</td><td><div>False</div></td></tr><tr><td style="font-weight:bold;vertical-align:top;">wsgi.url_scheme</td><td style="vertical-align:top;">:</td><td><div>http</div></td></tr><tr><td style="font-weight:bold;vertical-align:top;">wsgi.version</td><td style="vertical-align:top;">:</td><td><div><table><tr><td><div>1</div></td></tr><tr><td><div>0</div></td></tr></table></div></td></tr><tr><td style="font-weight:bold;vertical-align:top;">wsgi_errors</td><td style="vertical-align:top;">:</td><td><div>&lt;open file &#x27;&lt;stderr&gt;&#x27;, mode &#x27;w&#x27; at 0x1000ae270&gt;</div></td></tr><tr><td style="font-weight:bold;vertical-align:top;">wsgi_file_wrapper</td><td style="vertical-align:top;">:</td><td><div>&lt;class wsgiref.util.FileWrapper at 0x105b93328&gt;</div></td></tr><tr><td style="font-weight:bold;vertical-align:top;">wsgi_input</td><td style="vertical-align:top;">:</td><td><div>&lt;socket._fileobject object at 0x10da861d0&gt;</div></td></tr><tr><td style="font-weight:bold;vertical-align:top;">wsgi_multiprocess</td><td style="vertical-align:top;">:</td><td><div>False</div></td></tr><tr><td style="font-weight:bold;vertical-align:top;">wsgi_multithread</td><td style="vertical-align:top;">:</td><td><div>True</div></td></tr><tr><td style="font-weight:bold;vertical-align:top;">wsgi_run_once</td><td style="vertical-align:top;">:</td><td><div>False</div></td></tr><tr><td style="font-weight:bold;vertical-align:top;">wsgi_url_scheme</td><td style="vertical-align:top;">:</td><td><div>http</div></td></tr><tr><td style="font-weight:bold;vertical-align:top;">wsgi_version</td><td style="vertical-align:top;">:</td><td><div><table><tr><td><div>1</div></td></tr><tr><td><div>0</div></td></tr></table></div></td></tr></table></div></td></tr><tr><td style="font-weight:bold;vertical-align:top;">extension</td><td style="vertical-align:top;">:</td><td><div>html</div></td></tr><tr><td style="font-weight:bold;vertical-align:top;">folder</td><td style="vertical-align:top;">:</td><td><div>/Users/byoung/Desktop/web2py/web2py.app/Contents/Resources/applications/chemwastepro/</div></td></tr><tr><td style="font-weight:bold;vertical-align:top;">function</td><td style="vertical-align:top;">:</td><td><div>shipment</div></td></tr><tr><td style="font-weight:bold;vertical-align:top;">global_settings</td><td style="vertical-align:top;">:</td><td><div><table><tr><td style="font-weight:bold;vertical-align:top;">app_folders</td><td style="vertical-align:top;">:</td><td><div>set([&#x27;/Users/byoung/Desktop/web2py/web2py.app/Contents/Resources/applications/admin/&#x27;, &#x27;/Users/byoung/Desktop/web2py/web2py.app/Contents/Resources/applications/welcome/&#x27;, &#x27;/Users/byoung/Desktop/web2py/web2py.app/Contents/Resources/applications/chemwastepro/&#x27;])</div></td></tr><tr><td style="font-weight:bold;vertical-align:top;">applications_parent</td><td style="vertical-align:top;">:</td><td><div>/Users/byoung/Desktop/web2py/web2py.app/Contents/Resources</div></td></tr><tr><td style="font-weight:bold;vertical-align:top;">cmd_args</td><td style="vertical-align:top;">:</td><td><div><table></table></div></td></tr><tr><td style="font-weight:bold;vertical-align:top;">cmd_options</td><td style="vertical-align:top;">:</td><td><div>&lt;Values at 0x105ba0ef0: {&#x27;verbose&#x27;: False, &#x27;ip&#x27;: &#x27;127.0.0.1&#x27;, &#x27;debuglevel&#x27;: 30, &#x27;with_scheduler&#x27;: False, &#x27;shutdown_timeout&#x27;: 5, &#x27;taskbar&#x27;: False, &#x27;with_coverage&#x27;: False, &#x27;pid_filename&#x27;: &#x27;httpserver.pid&#x27;, &#x27;maxthreads&#x27;: None, &#x27;softcron&#x27;: False, &#x27;server_name&#x27;: &#x27;M1PDG8WL&#x27;, &#x27;bpython&#x27;: False, &#x27;nogui&#x27;: False, &#x27;port&#x27;: 8000, &#x27;print_errors&#x27;: False, &#x27;extcron&#x27;: False, &#x27;runcron&#x27;: False, &#x27;run_system_tests&#x27;: False, &#x27;test&#x27;: None, &#x27;folder&#x27;: &#x27;/Users/byoung/Desktop/web2py/web2py.app/Contents/Resources&#x27;, &#x27;config&#x27;: &#x27;&#x27;, &#x27;minthreads&#x27;: None, &#x27;shell&#x27;: None, &#x27;run&#x27;: &#x27;&#x27;, &#x27;log_filename&#x27;: &#x27;httpserver.log&#x27;, &#x27;profiler_dir&#x27;: None, &#x27;args&#x27;: [&#x27;&#x27;], &#x27;socket_timeout&#x27;: 5, &#x27;ssl_ca_certificate&#x27;: None, &#x27;scheduler&#x27;: None, &#x27;interfaces&#x27;: None, &#x27;ssl_private_key&#x27;: &#x27;&#x27;, &#x27;gae&#x27;: None, &#x27;password&#x27;: &#x27;******&#x27;, &#x27;request_queue_size&#x27;: 5, &#x27;ssl_certificate&#x27;: &#x27;&#x27;, &#x27;cronjob&#x27;: False, &#x27;numthreads&#x27;: None, &#x27;quiet&#x27;: False, &#x27;import_models&#x27;: False, &#x27;timeout&#x27;: 10, &#x27;plain&#x27;: False, &#x27;nobanner&#x27;: False}&gt;</div></td></tr><tr><td style="font-weight:bold;vertical-align:top;">db_sessions</td><td style="vertical-align:top;">:</td><td><div>set([])</div></td></tr><tr><td style="font-weight:bold;vertical-align:top;">debugging</td><td style="vertical-align:top;">:</td><td><div>True</div></td></tr><tr><td style="font-weight:bold;vertical-align:top;">gluon_parent</td><td style="vertical-align:top;">:</td><td><div>/Users/byoung/Desktop/web2py/web2py.app/Contents/Resources</div></td></tr><tr><td style="font-weight:bold;vertical-align:top;">is_jython</td><td style="vertical-align:top;">:</td><td><div>False</div></td></tr><tr><td style="font-weight:bold;vertical-align:top;">is_pypy</td><td style="vertical-align:top;">:</td><td><div>False</div></td></tr><tr><td style="font-weight:bold;vertical-align:top;">is_source</td><td style="vertical-align:top;">:</td><td><div>True</div></td></tr><tr><td style="font-weight:bold;vertical-align:top;">local_hosts</td><td style="vertical-align:top;">:</td><td><div><table><tr><td><div>::1</div></td></tr><tr><td><div>M1PDG8WL</div></td></tr><tr><td><div>::ffff:127.0.0.1</div></td></tr><tr><td><div>127.0.0.1</div></td></tr></table></div></td></tr><tr><td style="font-weight:bold;vertical-align:top;">web2py_version</td><td style="vertical-align:top;">:</td><td><div>2.14.6-stable+timestamp.2016.05.10.00.21.47</div></td></tr></table></div></td></tr><tr><td style="font-weight:bold;vertical-align:top;">is_https</td><td style="vertical-align:top;">:</td><td><div>False</div></td></tr><tr><td style="font-weight:bold;vertical-align:top;">is_local</td><td style="vertical-align:top;">:</td><td><div>True</div></td></tr><tr><td style="font-weight:bold;vertical-align:top;">is_restful</td><td style="vertical-align:top;">:</td><td><div>False</div></td></tr><tr><td style="font-weight:bold;vertical-align:top;">is_scheduler</td><td style="vertical-align:top;">:</td><td><div>False</div></td></tr><tr><td style="font-weight:bold;vertical-align:top;">is_shell</td><td style="vertical-align:top;">:</td><td><div>False</div></td></tr><tr><td style="font-weight:bold;vertical-align:top;">now</td><td style="vertical-align:top;">:</td><td><div>datetime.datetime(2017, 3, 28, 23, 19, 47, 167635)</div></td></tr><tr><td style="font-weight:bold;vertical-align:top;">raw_args</td><td style="vertical-align:top;">:</td><td><div></div></td></tr><tr><td style="font-weight:bold;vertical-align:top;">raw_extension</td><td style="vertical-align:top;">:</td><td><div>None</div></td></tr><tr><td style="font-weight:bold;vertical-align:top;">url</td><td style="vertical-align:top;">:</td><td><div>/chemwastepro/serverprocessing/shipment</div></td></tr><tr><td style="font-weight:bold;vertical-align:top;">utcnow</td><td style="vertical-align:top;">:</td><td><div>datetime.datetime(2017, 3, 29, 6, 19, 47, 167644)</div></td></tr><tr><td style="font-weight:bold;vertical-align:top;">wsgi</td><td style="vertical-align:top;">:</td><td><div>&lt;gluon.main.LazyWSGI object at 0x112cfb210&gt;</div></td></tr></table></div>'
tRp58
sS'frames'
p59
(lp60
(dp61
S'file'
p62
S'/Users/byoung/Desktop/web2py/web2py.app/Contents/Resources/gluon/restricted.py'
p63
sS'dump'
p64
(dp65
sS'lnum'
p66
I227
sS'lines'
p67
(dp68
I224
S'            ccode = code'
p69
sI225
S'        else:'
p70
sI226
S'            ccode = compile2(code, layer)'
p71
sI227
S'        exec ccode in environment'
p72
sI228
S'    except HTTP:'
p73
sI229
S'        raise'
p74
sI230
S'    except RestrictedError:'
p75
sI231
S'        # do not encapsulate (obfuscate) the original RestrictedError'
p76
sI222
S'    try:'
p77
sI223
S'        if isinstance(code, types.CodeType):'
p78
ssS'call'
p79
S"(code='# -*- coding: utf-8 -*-\\n# This is for the Datata...ields\\n\\nresponse._vars=response._caller(shipment)\\n', environment={'A': <class 'gluon.html.A'>, 'ANY_OF': <class 'gluon.validators.ANY_OF'>, 'ASSIGNJS': <function ASSIGNJS>, 'AppConfig': <function AppConfig>, 'Auth': <class 'gluon.tools.Auth'>, 'B': <class 'gluon.html.B'>, 'BEAUTIFY': <class 'gluon.html.BEAUTIFY'>, 'BODY': <class 'gluon.html.BODY'>, 'BR': <class 'gluon.html.BR'>, 'BUTTON': <class 'gluon.html.BUTTON'>, ...}, layer='/Users/byoung/Desktop/web2py/web2py.app/Contents...ions/chemwastepro/controllers/serverprocessing.py')"
p80
sS'func'
p81
S'restricted'
p82
sa(dp83
g62
S'/Users/byoung/Desktop/web2py/web2py.app/Contents/Resources/applications/chemwastepro/controllers/serverprocessing.py'
p84
sg64
(dp85
sg66
I97
sg67
(dp86
I86
S'    shipment = """{"draw": """+str(drawint)+""", "recordsTotal": """+str(tablecount)+""", "recordsFiltered": """+str(rowscount)+""","data":"""'
p87
sI87
S'    shipment += json.dumps([dict(id=r.id,manifest=r.manifest,editlink=icon  % r.id) for r in rows.render()])#adding render to use represented view of fields'
p88
sI88
S'    #shipment += json.dumps(dict(id=r.id,manifest=r.manifest,editlink=icon  % r.id) for r in rows.render())#adding render to use represented view of fields'
p89
sI89
S'    shipment += """}"""'
p90
sI90
S''
sI91
S'    return (shipment)'
p91
sI92
S''
sI93
S''
sI94
S''
sI95
S'    #shipment = json.dumps([dict(id=r.id,manifest=r.manifest,editlink=icon  % r.id) for r in rows.render()])#adding render to use represented view of fields'
p92
ssg79
S'()'
p93
sg81
S'<module>'
p94
sa(dp95
g62
S'/Users/byoung/Desktop/web2py/web2py.app/Contents/Resources/gluon/globals.py'
p96
sg64
(dp97
sg66
I417
sg67
(dp98
I416
S'        self._vars = None'
p99
sI417
S'        self._caller = lambda f: f()'
p100
sI418
S'        self._view_environment = None'
p101
sI419
S'        self._custom_commit = None'
p102
sI420
S'        self._custom_rollback = None'
p103
sI421
S"        self.generic_patterns = ['*']"
p104
sI412
S"        self.flash = ''            # used by the default view layout"
p105
sI413
S'        self.meta = Storage()      # used by web2py_ajax.html'
p106
sI414
S'        self.menu = []             # used by the default view layout'
p107
sI415
S'        self.files = []            # used by web2py_ajax.html'
p108
ssg79
S'(f=<function shipment>)'
p109
sg81
S'<lambda>'
p110
sa(dp111
g62
S'/Users/byoung/Desktop/web2py/web2py.app/Contents/Resources/applications/chemwastepro/controllers/serverprocessing.py'
p112
sg64
(dp113
sg66
I73
sg67
(dp114
I68
S'        query=[db.shipment[field].contains(dtsearch) for textfield in textfields]'
p115
sI69
S'    else:'
p116
sI70
S'        query=[db.shipment]'
p117
sI71
S'    rowsc = db(*query).select(*sel, orderby=orderby)#, limitby=(dtstart,dtlength)'
p118
sI72
S'    rows = db(*query).select(*sel, orderby=orderby, limitby=(dtstart,dtlength))'
p119
sI73
S'    len()'
p120
sI74
S'    rowscount=len(rowsc)'
p121
sI75
S'    #Custom Query'
p122
sI76
S"    #''.join('%s dtsearch % level for level in fields)"
p123
sI77
S"    #db.mytable.myfield.contains('value')"
p124
ssg79
S'()'
p125
sg81
S'shipment'
p126
sasS'pyver'
p127
S'Python 2.7.3: /Users/byoung/Desktop/web2py/web2py.app/Contents/MacOS/python (prefix: /Users/byoung/Desktop/web2py/web2py.app/Contents/Resources)'
p128
sS'session'
p129
g57
(S's\x1a\x00\x00\x00<div><table></table></div>'
tRp130
sS'etype'
p131
S"<type 'exceptions.TypeError'>"
p132
sS'date'
p133
S'Tue Mar 28 23:19:47 2017'
p134
sS'response'
p135
g57
(S's+#\x00\x00<div><table><tr><td style="font-weight:bold;vertical-align:top;">body</td><td style="vertical-align:top;">:</td><td><div>&lt;cStringIO.StringO object at 0x10e88bd88&gt;</div></td></tr><tr><td style="font-weight:bold;vertical-align:top;">cookies</td><td style="vertical-align:top;">:</td><td><div><table><tr><td style="font-weight:bold;vertical-align:top;">session_id_chemwastepro</td><td style="vertical-align:top;">:</td><td><div>127.0.0.1-01cbcd42-0920-4f73-befe-12de2ffe8d4b<table><tr><td style="font-weight:bold;vertical-align:top;">comment</td><td style="vertical-align:top;">:</td><td><div></div></td></tr><tr><td style="font-weight:bold;vertical-align:top;">domain</td><td style="vertical-align:top;">:</td><td><div></div></td></tr><tr><td style="font-weight:bold;vertical-align:top;">expires</td><td style="vertical-align:top;">:</td><td><div></div></td></tr><tr><td style="font-weight:bold;vertical-align:top;">httponly</td><td style="vertical-align:top;">:</td><td><div></div></td></tr><tr><td style="font-weight:bold;vertical-align:top;">max-age</td><td style="vertical-align:top;">:</td><td><div></div></td></tr><tr><td style="font-weight:bold;vertical-align:top;">path</td><td style="vertical-align:top;">:</td><td><div>/</div></td></tr><tr><td style="font-weight:bold;vertical-align:top;">secure</td><td style="vertical-align:top;">:</td><td><div></div></td></tr><tr><td style="font-weight:bold;vertical-align:top;">version</td><td style="vertical-align:top;">:</td><td><div></div></td></tr></table></div></td></tr></table></div></td></tr><tr><td style="font-weight:bold;vertical-align:top;">delimiters</td><td style="vertical-align:top;">:</td><td><div><table><tr><td><div>{{</div></td></tr><tr><td><div>}}</div></td></tr></table></div></td></tr><tr><td style="font-weight:bold;vertical-align:top;">files</td><td style="vertical-align:top;">:</td><td><div><table></table></div></td></tr><tr><td style="font-weight:bold;vertical-align:top;">flash</td><td style="vertical-align:top;">:</td><td><div></div></td></tr><tr><td style="font-weight:bold;vertical-align:top;">form_label_separator</td><td style="vertical-align:top;">:</td><td><div></div></td></tr><tr><td style="font-weight:bold;vertical-align:top;">formstyle</td><td style="vertical-align:top;">:</td><td><div>bootstrap3_inline</div></td></tr><tr><td style="font-weight:bold;vertical-align:top;">generic_patterns</td><td style="vertical-align:top;">:</td><td><div><table><tr><td><div>*</div></td></tr></table></div></td></tr><tr><td style="font-weight:bold;vertical-align:top;">google_analytics_id</td><td style="vertical-align:top;">:</td><td><div>None</div></td></tr><tr><td style="font-weight:bold;vertical-align:top;">headers</td><td style="vertical-align:top;">:</td><td><div><table><tr><td style="font-weight:bold;vertical-align:top;">Content-Security-Policy</td><td style="vertical-align:top;">:</td><td><div>frame-ancestors &#x27;self&#x27;</div></td></tr><tr><td style="font-weight:bold;vertical-align:top;">X-Frame-Options</td><td style="vertical-align:top;">:</td><td><div>SAMEORIGIN</div></td></tr><tr><td style="font-weight:bold;vertical-align:top;">X-Powered-By</td><td style="vertical-align:top;">:</td><td><div>web2py</div></td></tr></table></div></td></tr><tr><td style="font-weight:bold;vertical-align:top;">logo</td><td style="vertical-align:top;">:</td><td><div></div></td></tr><tr><td style="font-weight:bold;vertical-align:top;">menu</td><td style="vertical-align:top;">:</td><td><div><table><tr><td><div><table><tr><td><div>Home</div></td></tr><tr><td><div>False</div></td></tr><tr><td><div>/chemwastepro/default/index</div></td></tr><tr><td><div><table></table></div></td></tr></table></div></td></tr><tr><td><div><table><tr><td><div>Inventory</div></td></tr><tr><td><div>False</div></td></tr><tr><td><div>#</div></td></tr><tr><td><div><table><tr><td><div><table><tr><td><div>Item</div></td></tr><tr><td><div>False</div></td></tr><tr><td><div>/chemwastepro/inventory/item</div></td></tr></table></div></td></tr><tr><td><div><li class="divider"></li></div></td></tr><tr><td><div><table><tr><td><div>Container</div></td></tr><tr><td><div>False</div></td></tr><tr><td><div>/chemwastepro/inventory/container</div></td></tr></table></div></td></tr><tr><td><div><li class="divider"></li></div></td></tr><tr><td><div><table><tr><td><div>Shipment</div></td></tr><tr><td><div>False</div></td></tr><tr><td><div>/chemwastepro/inventory/shipment</div></td></tr></table></div></td></tr><tr><td><div><table><tr><td><div>Chemical Index</div></td></tr><tr><td><div>False</div></td></tr><tr><td><div>/chemwastepro/inventory/chemindex</div></td></tr></table></div></td></tr></table></div></td></tr></table></div></td></tr><tr><td><div><table><tr><td><div>Reports</div></td></tr><tr><td><div>False</div></td></tr><tr><td><div>/chemwastepro/reports/shipment</div></td></tr></table></div></td></tr></table></div></td></tr><tr><td style="font-weight:bold;vertical-align:top;">meta</td><td style="vertical-align:top;">:</td><td><div><table><tr><td style="font-weight:bold;vertical-align:top;">author</td><td style="vertical-align:top;">:</td><td><div>Bruce Young &lt;brucedyoung@gmail.com&gt;</div></td></tr><tr><td style="font-weight:bold;vertical-align:top;">description</td><td style="vertical-align:top;">:</td><td><div>Open Hazardous Waste Management</div></td></tr><tr><td style="font-weight:bold;vertical-align:top;">generator</td><td style="vertical-align:top;">:</td><td><div>Web2py Web Framework</div></td></tr><tr><td style="font-weight:bold;vertical-align:top;">keywords</td><td style="vertical-align:top;">:</td><td><div>web2py, python, framework</div></td></tr></table></div></td></tr><tr><td style="font-weight:bold;vertical-align:top;">models_to_run</td><td style="vertical-align:top;">:</td><td><div><table><tr><td><div>^\\w+\\.py$</div></td></tr><tr><td><div>^serverprocessing/\\w+\\.py$</div></td></tr><tr><td><div>^serverprocessing/shipment/\\w+\\.py$</div></td></tr></table></div></td></tr><tr><td style="font-weight:bold;vertical-align:top;">postprocessing</td><td style="vertical-align:top;">:</td><td><div><table></table></div></td></tr><tr><td style="font-weight:bold;vertical-align:top;">session_client</td><td style="vertical-align:top;">:</td><td><div>127.0.0.1</div></td></tr><tr><td style="font-weight:bold;vertical-align:top;">session_cookie_compression_level</td><td style="vertical-align:top;">:</td><td><div>None</div></td></tr><tr><td style="font-weight:bold;vertical-align:top;">session_cookie_expires</td><td style="vertical-align:top;">:</td><td><div>None</div></td></tr><tr><td style="font-weight:bold;vertical-align:top;">session_data_name</td><td style="vertical-align:top;">:</td><td><div>session_data_chemwastepro</div></td></tr><tr><td style="font-weight:bold;vertical-align:top;">session_file</td><td style="vertical-align:top;">:</td><td><div>&lt;open file &#x27;/Users/byoung/Desktop/web2py/web2py.app/Contents/Resources/applications/chemwastepro/sessions/0bb/126/127.0.0.1-01cbcd42-0920-4f73-befe-12de2ffe8d4b&#x27;, mode &#x27;rb+&#x27; at 0x112d0a4b0&gt;</div></td></tr><tr><td style="font-weight:bold;vertical-align:top;">session_filename</td><td style="vertical-align:top;">:</td><td><div>/Users/byoung/Desktop/web2py/web2py.app/Contents/Resources/applications/chemwastepro/sessions/127.0.0.1-01cbcd42-0920-4f73-befe-12de2ffe8d4b</div></td></tr><tr><td style="font-weight:bold;vertical-align:top;">session_hash</td><td style="vertical-align:top;">:</td><td><div>ac8bcb0d98df7ec5349437890c6d1212</div></td></tr><tr><td style="font-weight:bold;vertical-align:top;">session_id</td><td style="vertical-align:top;">:</td><td><div>127.0.0.1-01cbcd42-0920-4f73-befe-12de2ffe8d4b</div></td></tr><tr><td style="font-weight:bold;vertical-align:top;">session_id_name</td><td style="vertical-align:top;">:</td><td><div>session_id_chemwastepro</div></td></tr><tr><td style="font-weight:bold;vertical-align:top;">session_locked</td><td style="vertical-align:top;">:</td><td><div>True</div></td></tr><tr><td style="font-weight:bold;vertical-align:top;">session_masterapp</td><td style="vertical-align:top;">:</td><td><div>chemwastepro</div></td></tr><tr><td style="font-weight:bold;vertical-align:top;">session_new</td><td style="vertical-align:top;">:</td><td><div>False</div></td></tr><tr><td style="font-weight:bold;vertical-align:top;">session_storage_type</td><td style="vertical-align:top;">:</td><td><div>file</div></td></tr><tr><td style="font-weight:bold;vertical-align:top;">status</td><td style="vertical-align:top;">:</td><td><div>200</div></td></tr><tr><td style="font-weight:bold;vertical-align:top;">subtitle</td><td style="vertical-align:top;">:</td><td><div></div></td></tr><tr><td style="font-weight:bold;vertical-align:top;">title</td><td style="vertical-align:top;">:</td><td><div>Chemwastepro</div></td></tr><tr><td style="font-weight:bold;vertical-align:top;">view</td><td style="vertical-align:top;">:</td><td><div>serverprocessing/shipment.html</div></td></tr></table></div>'
tRp136
sS'locals'
p137
(dp138
S'orderby'
p139
S'[<pydal.objects.Field object>]'
p140
sS'textfields'
p141
S"['manifest']"
p142
sS'rows'
p143
S'<Rows (13)>'
p144
sS'dtsearch'
p145
S"''"
p146
sS'searchval'
p147
S'None'
p148
sS'fields'
p149
S"['id', 'manifest']"
p150
sS'rowsc'
p151
S'<Rows (13)>'
p152
sS'orderfields'
p153
S"['id', 'manifest']"
p154
sS'ordercol'
p155
S'None'
p156
sS'field'
p157
S"'manifest'"
p158
sS'tablecount'
p159
S'13L'
p160
sS'dtlength'
p161
S'100'
p162
sS'drawint'
p163
S'0'
sS'dtorder'
p164
S"'0'"
p165
sS'query'
p166
S'[<Table shipment (id, manifest)>]'
p167
sS'dtstart'
p168
S'0'
sS'sel'
p169
S'[<pydal.objects.Field object>, <pydal.objects.Field object>]'
p170
sssS'traceback'
p171
S'Traceback (most recent call last):\n  File "/Users/byoung/Desktop/web2py/web2py.app/Contents/Resources/gluon/restricted.py", line 227, in restricted\n  File "/Users/byoung/Desktop/web2py/web2py.app/Contents/Resources/applications/chemwastepro/controllers/serverprocessing.py", line 97, in <module>\n  File "/Users/byoung/Desktop/web2py/web2py.app/Contents/Resources/gluon/globals.py", line 417, in <lambda>\n  File "/Users/byoung/Desktop/web2py/web2py.app/Contents/Resources/applications/chemwastepro/controllers/serverprocessing.py", line 73, in shipment\nTypeError: len() takes exactly one argument (0 given)\n'
p172
s.