(dp1
S'output'
p2
S"<type 'exceptions.AttributeError'> 'Table' object has no attribute 'cabinet'"
p3
sS'layer'
p4
S'/Users/byoung/Desktop/web2py/web2py.app/Contents/Resources/applications/chemwastepro/models/db.py'
p5
sS'code'
p6
S'# -*- coding: utf-8 -*-\n\n#########################################################################\n## This scaffolding model makes your app work on Google App Engine too\n## File is released under public domain and you can use without limitations\n#########################################################################\n\n## if SSL/HTTPS is properly configured and you want all HTTP requests to\n## be redirected to HTTPS, uncomment the line below:\n# request.requires_https()\n\n## app configuration made easy. Look inside private/appconfig.ini\nfrom gluon.contrib.appconfig import AppConfig\n## once in production, remove reload=True to gain full speed\nmyconf = AppConfig(reload=True)\n#Put a file in the root level of web2py, alongside the applications folder, with the connection string\n#example connection string = mysql://db_user:Password!@localhost/chemwastepro\nfile = open(\'chemwasteproconnectionstring.txt\', \'r\')\nconnectionstring = file.readline().rstrip(\'\\n\') #strip newline just in case\nfile.close()\nif not request.env.web2py_runtime_gae:\n    ## if NOT running on Google App Engine use SQLite or other DB\n    #db = DAL(myconf.take(\'db.uri\'), pool_size=myconf.take(\'db.pool_size\', cast=int), check_reserved=[\'all\'])\n    db = DAL(connectionstring,migrate=False,lazy_tables=True)\nelse:\n    ## connect to Google BigTable (optional \'google:datastore://namespace\')\n    db = DAL(\'google:datastore+ndb\')\n    ## store sessions and tickets there\n    session.connect(request, response, db=db)\n    ## or store session in Memcache, Redis, etc.\n    ## from gluon.contrib.memdb import MEMDB\n    ## from google.appengine.api.memcache import Client\n    ## session.connect(request, response, db = MEMDB(Client()))\n    \n#add the db object to the current thread local object, which can then be imported and accessed within the modules\nfrom gluon import current\ncurrent.db = db\n## by default give a view/generic.extension to all actions from localhost\n## none otherwise. a pattern can be \'controller/function.extension\'\nresponse.generic_patterns = [\'*\'] if request.is_local else []\n## choose a style for forms\nresponse.formstyle = myconf.take(\'forms.formstyle\')  # or \'bootstrap3_stacked\' or \'bootstrap2\' or other\nresponse.form_label_separator = myconf.take(\'forms.separator\')\n\n\n#Security stuff. Make sure your web server is set to HTTPS only.\nresponse.headers[\'X-Frame-Options\'] = "SAMEORIGIN"\nresponse.headers[\'Content-Security-Policy\'] = "frame-ancestors \'self\'"\n#session._secure=True # Sets cookies to "HTTPOnly; Secure" # this only works if the site is HTTPS\n#response.headers[\'Strict-Transport-Security\'] = "max-age=31536000" # this only works if the site is HTTPS\n\n\n## (optional) optimize handling of static files\n# response.optimize_css = \'concat,minify,inline\'\n# response.optimize_js = \'concat,minify,inline\'\n## (optional) static assets folder versioning\n# response.static_version = \'0.0.0\'\n#########################################################################\n## Here is sample code if you need for\n## - email capabilities\n## - authentication (registration, login, logout, ... )\n## - authorization (role based authorization)\n## - services (xml, csv, json, xmlrpc, jsonrpc, amf, rss)\n## - old style crud actions\n## (more options discussed in gluon/tools.py)\n#########################################################################\n\nfrom gluon.tools import Auth, Service, PluginManager\n\nauth = Auth(db)\nservice = Service()\nplugins = PluginManager()\n\n## create all tables needed by auth if not custom tables\n#auth.define_tables(username=False, signature=False)\n\n## configure emails\n#mail = auth.settings.mailer\n#mail.settings.server = \'logging\' if request.is_local else myconf.take(\'smtp.server\')\n#mail.settings.sender = myconf.take(\'smtp.sender\')\n#mail.settings.login = myconf.take(\'smtp.login\')\n\n## configure auth policy\nauth.settings.registration_requires_verification = False\nauth.settings.registration_requires_approval = False\nauth.settings.reset_password_requires_verification = True\n\n##Define some globals\nPageHeader = ""\ntopactionbutton1 = ""\ntopactionbutton2 = ""\ntopactionbutton3 = ""\ntopactionbutton4 = ""\nenterbutton = cancelbutton = \'\'\n\n\n#########################################################################\n## Define your tables below (or better in another model file) for example\n##\n## >>> db.define_table(\'mytable\',Field(\'myfield\',\'string\'))\n##\n## Fields can be \'string\',\'text\',\'password\',\'integer\',\'double\',\'boolean\'\n##       \'date\',\'time\',\'datetime\',\'blob\',\'upload\', \'reference TABLENAME\'\n## There is an implicit \'id integer autoincrement\' field\n## Consult manual for more options, validators, etc.\n##\n## More API examples for controllers:\n##\n## >>> db.mytable.insert(myfield=\'value\')\n## >>> rows=db(db.mytable.myfield==\'value\').select(db.mytable.ALL)\n## >>> for row in rows: print row.id, row.myfield\n#########################################################################\n\n## after defining tables, uncomment below to enable auditing\n# auth.enable_record_versioning(db)\n\n## This database structure uses "list:reference" which is a means to de-normalize many to many tables.\n#http://web2py.com/books/default/chapter/29/6#list--type--and-contains\n#This makes the database structure simpler by avoiding junction tables\n#web2py the "list:reference" is a string with bar delimiters between the record id, example "|1|2|"\n\n    #Multi-select code\n    #http://www.web2pyslices.com/slice/show/1395/jquery-multi-select-widget\n\n# Naming Scheme\n# use prefix "c" for child tables, like units.\n\n\ndb.define_table(\'state\', # NOT USED?\n                Field(\'name\',\'string\'),\n                format=\'%(name)s\'\n               )\ndb.define_table(\'receptacle\',\n                Field(\'name\',\'string\'),\n                format=\'%(name)s\'\n               )\ndb.define_table(\'units\',\n                Field(\'name\',\'string\'),\n                format=\'%(name)s\'\n               )\n\n#\'condition\' is a reserved word in SQL, so we use \'condition_\' per the Python style guide\ndb.define_table(\'condition_\',\n                Field(\'name\',\'string\'),\n                format=\'%(name)s\'\n               )\n#Conversions are needed to match shipping requirements. For example, asbestos may be collected as pounds, but shipped as yards\n#Also, billing may be based on a fixed unit, like gallons\ndb.define_table(\'conversions\',\n                Field(\'unitsfrom\', \'reference units\'),\n                Field(\'conversionfactor\', \'decimal(65,10)\'),\n                format=\'%(name)s\'\n               )\n#The TSDF and Treatment codes purpose are twofold.\n# First to segregate chemicals for storage, lab packing and shipping\n# Second to use the codes to complete the Federal Regulation Biennial Report (also known as the Hazardous Waste Report)\n#TSDF = Hazardous Waste Treatment, Storage, and Disposal Facility\ndb.define_table(\'tsdf\',\n                Field(\'tsdfname\',\'string\'),\n                Field(\'tsdfnumber\',\'string\'),\n\n                format=\'%(tsdfname)s\'\n                )\n#Treatment codes come from http://www3.epa.gov/epawaste/hazard/transportation/manifest/pdf/codes.pdf\ndb.define_table(\'treatment\',\n                Field(\'treatmentname\',\'string\'),\n                #Hazardous Waste Report TreatmentCode\n                Field(\'treatmentcode\',\'string\',length=\'4\'),\n                Field(\'treatnameabbrev\',\'string\',length=\'10\'),\n                format=\'%(treatnameabbrev)s\'\n                )\ndb.define_table(\'hazard\',\n                Field(\'hazardname\',\'string\'),\n                Field(\'hazard_order\',\'integer\'),\n                Field(\'hazardabbrev\',\'string\'),\n                format=\'%(hazardname)s\'\n                )\ndb.define_table(\'fedwastecode\',\n                Field(\'code\',\'string\',length=\'4\'),\n                Field(\'wastedescription\',\'string\'),\n                format=\'%(code)s%(wastedescription)s\'\n               )\ndb.define_table(\'unna\',\n                Field(\'name\',type=\'string\'),\n                Field(\'unna\',type=\'string\'),\n                )\n\ndb.define_table(\'chemindex\',\n                Field(\'id\',\'id\'),\n                Field(\'chemname\',\'string\'),\n                #Field(\'chemname\',\'string\', requires=IS_NOT_EMPTY())\n                #Field(\'prefix\',\'string\'),\n                #Field(\'cmidfix\',\'string\'),\n                #Field(\'csuffix\',\'string\'),\n                Field(\'casnum\',\'string\'),\n                Field(\'state\',\'string\'),\n                Field(\'group_\',\'string\'), #MYSQL reserved word, trailing underscore\n                # The disposal code uses a nested lambda\n                # the first lamda using record r computes the value for the field\n                #the second lambda using v joins the values from the chazard field which contains a list\n                #iterating with lambda\n                #[v * 5 for v in x]\n                #is the same as\n                #y = map(lambda v : v+\'-\', x) - which is a dash separated list\n                #use join to concatenate the list using a comma\n                #\',\'.join(lst)\n                #So just the hazard part of the disposal code is compute=lambda r: \',\'.join(map(lambda v : db.hazard[v].hazardabbrev , r[\'chazard\'])))\n                \n                #DONT USE - Try to compute Disposal Code dynmaically in every case\n                Field(\'disposalcode\',compute=lambda r: cwp_functions.returndisposalcode(r[\'id\'])),\n                Field(\'tsdf\',\'reference tsdf\'),\n                Field(\'treatment\',\'reference treatment\'),\n                Field(\'hazwastecodes\',compute=lambda r: \',\'.join(map(lambda v : db.fedwastecode[v].code , r[\'fedwastecode\']))),\n                #list:reference is a way to introduce many to many relationship without using join table\n                #list can be reordered. For example, 1=Flammable, 2 = Corrosive\n                #list is ordered on creation\n                #[\'1\',\'2\'] list can be reordered to reflect Corrosive,Flammable = [\'2\',\'1\']\n                #Field(\'hazard\',\'list:string\', requires = IS_EMPTY_OR(IS_IN_DB(db,\'hazard.id\', db.hazard._format,multiple=True))),\n                #State Hazardous Waste Codes - http://www3.epa.gov/epawaste/inforesources/data/br13/br13-specification.pdf\n                Field(\'fedwastecode\',\'list:string\', requires = IS_EMPTY_OR(IS_IN_DB(db,\'fedwastecode.id\', db.fedwastecode._format,multiple=True))), #like D001, D002\n                Field(\'dotpsn\',\'boolean\'), #Department of Transportation Proper Shipping Name - if checked, do not edit name\n                Field(\'packtype\',\'string\', default=\'\'),\n                Field(\'comments\',\'text\'),\n                Field(\'components\',\'text\'),# similar to mixture\n                Field(\'unna\',\'reference unna\'),# United Nations/United State List of Hazardous Materials\n                Field(\'pg\',\'string\'), #Packing Group\n                format=\'%(chemname)s\',\n               )\ndb.chemindex.packtype.requires=IS_EMPTY_OR(IS_IN_SET((\'\',\'LP\',\'BU\')))\ndb.chemindex.tsdf.requires = IS_EMPTY_OR(IS_IN_DB(db,\'tsdf.id\',\'%(tsdfname)s\'))\ndb.chemindex.treatment.requires = IS_EMPTY_OR(IS_IN_DB(db,\'treatment.id\',\'%(treatnameabbrev)s\'))\ndb.chemindex.group_.requires=IS_EMPTY_OR(IS_IN_SET((\'Inorganic\',\'Organic\'))) # IN = Inorganic, OR = Organic\ndb.chemindex.state.requires=IS_EMPTY_OR(IS_IN_SET((\'Solid\',\'Liquid\',\'Gas\')))\ndb.chemindex.unna.requires = IS_EMPTY_OR(IS_IN_DB(db,\'unna.id\',\'%(unna)s\'))\n\n#Reference http://blog.jotbe-fx.de/articles/2522/web2py-Normalized-many-to-many-model-with-multiselect-drop-down\ndb.define_table(\'chemindex_hazard_association\',\n                Field(\'chemindex_id\', \'reference chemindex\'),\n                Field(\'hazard_id\', \'reference hazard\'),\n                Field(\'hazard_order\', \'integer\'),\n               )\n\n#db.chemindex.hazards_st = Field.Method(lambda id,row:db(db.chemindex_hazard_association.chemindex_id == row.id).select().first().hazard_id)\n\ndb.define_table(\'psn\', # Proper Shipping Name\n                Field(\'propershippingname\',type=\'string\',\n                      required=True),\n                format=\'%(propershippingname)s\'\n               )\n\n#Physical hazardous waste storage cabinets\n#TODO - should also segregate by Inorganic / Organic\n#Cannot use just Hazard\ndb.define_table(\'cabinet\',\n                Field(\'name\',\'string\'),\n                Field(\'cabinetcode\',\'reference hazard\'),\n                Field(\'group_\',\'string\'), #MYSQL reserved word, trailing underscore\n                )\n# ALLOW EMPTY??? Or require cabinet group\ndb.cabinet.group_.requires=IS_EMPTY_OR(IS_IN_SET((\'Inorganic\',\'Organic\'))) # IN = Inorganic, OR = Organic\n\n#Physical shelves or tubs inside the cabinets\ndb.define_table(\'shelf\',\n                Field(\'shelfcode\',\'string\',default=""),\n                Field(\'disposalcode\',\'string\'),\n                Field(\'scabinet\',\'reference cabinet\'),\n                format=\'%(shelfcode)s\'\n               )\ndb.shelf.cabinet.requires = IS_IN_DB(db,\'cabinet.id\',\'%(name)s\')#make drop down list of cabinets\n\n#drum, pallet, bin\ndb.define_table(\'shipment\',\n                Field(\'manifest\',type=\'string\',\n                      required=True),\n                format=\'%(manifest)s\'\n               )\ndb.define_table(\'containertype\',\n                Field(\'containertypecode\',type=\'string\',required=True),\n                Field(\'name\',type=\'string\'),\n                format=\'%(containertypecode)s - %(name)s\'\n               )\n\n# If you have more than one EPA ID number site shipping Hazardous Waste Manifests\ndb.define_table(\'generator\',\n                Field(\'name\',type=\'string\'),\n                Field(\'epaid\',type=\'string\'), #Environmental Protection Agency Identification Number\n                Field(\'address\',type=\'string\'),\n                )\n\ndb.define_table(\'container\',\n                Field(\'contnum\',\'string\',default="1000"),#an alphanumeric identifier for container. Regulations say drum number must be unique per shipment\n                Field(\'psn\',\'reference psn\'), #PSN= Proper Shipping Name\n                Field(\'opendate\',\'date\'),\n                Field(\'closedate\',\'date\'),\n                Field(\'accumulationstartdate\',\'date\'),\n                Field(\'chemweight\',\'decimal(65,2)\'),\n                Field(\'grossweight\',\'decimal(65,2)\'),\n                Field(\'disposalcode\',\'string\'),\n                Field(\'profile\',\'string\'), #Waste profile from TSDF\n                Field(\'tsdf\',\'reference tsdf\'),\n                Field(\'containertype\',\'reference containertype\'), # from regulations\n                Field(\'containersize\',\'string\'), #standard measurement, example 55Gal drum\n                Field(\'containervolume\',\'integer\'),\n                Field(\'containerstyle\',\'string\'),\n                Field(\'containerconstruction\',\'string\'),\n                Field(\'closedby\',\'string\'),\n                Field(\'statewastecode\',\'string\'),#california waste code\n                Field(\'fedwastecode\',\'list:string\', requires = IS_IN_DB(db,\'fedwastecode.id\', db.fedwastecode._format,multiple=True)), #like D001, D002\n                Field(\'shipment\',\'reference shipment\'),\n                Field(\'generator\',\'reference generator\'),\n                Field(\'contentscomposition\',\'string\'),\n                Field(\'cstate\',\'string\'),\n                Field(\'rq\',\'boolean\'), # Reportable Quantity\n                Field(\'unna\',\'reference unna\'),\n                Field(\'descriptor\',\'string\'),\n                Field(\'technicalname\',\'string\'),\n                Field(\'hazdivision\',\'string\',requires = IS_EMPTY_OR(IS_IN_SET((\'1.1\',\'1.2\',\'1.3\',\'1.4\',\'1.5\',\'1.6\',\'2.1\',\'2.2\',\'2.3\',\'3\',\'4.1\',\'4.2\',\'4.3\',\'5\',\'5.1\',\'6.1\',\'6.2\',\'7\',\'8\',\'9\',\'NON-RCRA\')))),\n                Field(\'pggroup\',\'string\',requires = IS_EMPTY_OR(IS_IN_SET((\'FORBDN\',\'PG I\',\'PG I-II\',\'PG I-III\',\'PG II\',\'PG II-III\',\'PG III\')))), # packing group\n                Field(\'psndescriptor\',\'string\'),\n                Field(\'hazardousproperties\',\'list:string\', requires = IS_IN_DB(db,\'hazard.id\', db.hazard._format,multiple=True)),\n                format=\'%(contnum)s\'\n               )\ndb.container.tsdf.requires = IS_EMPTY_OR(IS_IN_DB(db,\'tsdf.id\',\'%(tsdfname)s\'))\ndb.container.containerstyle.requires=IS_EMPTY_OR(IS_IN_SET((\'Bin\',\'Box\',\'Pail\',\'Drum\',\'End Dump\',\'Pallet\',\'Salvage\',\'Tank Truck\',\'Cylinder\')))    \ndb.container.containersize.requires=IS_EMPTY_OR(IS_IN_SET((\'\',\'05G\',\'08G\',\'10G\',\'12G\',\'15G\')))\ndb.container.containerconstruction.requires=IS_EMPTY_OR(IS_IN_SET((\'NA\',\'Plastic\',\'Wood\',\'Metal\',\'Fiber\')))\ndb.container.containertype.requires = IS_EMPTY_OR(IS_IN_DB(db,\'containertype.id\',\'%(name)s\')), #allow Containertype to be empty\ndb.container.containertype.widget = SQLFORM.widgets.options.widget #make drop-down list    \ndb.container.psn.requires = IS_EMPTY_OR(IS_IN_DB(db,\'psn.id\',\'%(propershippingname)s\')), #allow PSN to be empty\ndb.container.psn.widget = SQLFORM.widgets.options.widget #make drop-down list    \ndb.container.generator.requires = IS_EMPTY_OR(IS_IN_DB(db,\'generator.id\',\'%(name)s\')), #allow container ID to be empty \ndb.container.generator.widget = SQLFORM.widgets.options.widget #make drop-down list    \ndb.container.cstate.requires=IS_EMPTY_OR(IS_IN_SET((\'Solid\',\'Liquid\'))),\ndb.container.cstate.widget = SQLFORM.widgets.options.widget #make drop-down list \ndb.container.unna.requires = IS_EMPTY_OR(IS_IN_DB(db,\'unna.id\',\'%(unna)s\')), #allow container ID to be empty \ndb.container.unna.widget = SQLFORM.widgets.options.widget #make drop-down list    \n\ndb.define_table(\'item\',\n                Field(\'name\',\'reference chemindex\',required=True),\n                Field(\'condition_\',\'reference condition_\'),#,widget=SQLFORM.widgets.options.widget,requires=[IS_IN_DB(db, db.condition_.name)]),\n                Field(\'state\',\'string\'),\n                Field(\'amount\',\'decimal(65,2)\'),\n                Field(\'units\', \'reference units\'),\n                Field(\'capacity\',\'integer\'),\n                Field(\'quantity\',\'integer\'),\n                Field(\'receptacle\', \'reference receptacle\'),\n                Field(\'pounds\',compute=lambda r: db.conversions(r[\'Iunits\']).unitsfrom),\n                Field(\'hazwastecodes\',\'string\',readable=False),\n                Field(\'components\',\'text\'),\n                Field(\'mixture\',\'text\'),\n                Field(\'comments\',\'text\'),\n                Field(\'input_id\',\'string\'),#a reference from the feeder system, example "From Dr. Bromer\'s lab"\n                Field(\'inputnumber\',\'integer\'),#a reference from the feeder system, example "12345" OR otp_waste_container_id\n                Field(\'shelf\', \'reference shelf\', default=0), #allow container ID to be empty\n                Field(\'container\', \'reference container\'),\n                format=\'%(name)s\'\n               )\ndb.item.state.requires=IS_IN_SET((\'Solid\',\'Liquid\',\'Gas\'))\ndb.item.name.requires = IS_EMPTY_OR(IS_IN_DB(db,\'chemindex.id\',\'%(chemname)s\'))\ndb.item.container.requires = IS_EMPTY_OR(IS_IN_DB(db,\'container.id\',\'%(id)s %(contnum)s\')), #allow container ID to be empty - Put ID and container key, in case container key is blank\ndb.item.container.widget = SQLFORM.widgets.options.widget #make drop-down list    \ndb.item.units.requires = IS_EMPTY_OR(IS_IN_DB(db,\'units.id\',\'%(name)s\')), #allow units to be empty\ndb.item.units.widget = SQLFORM.widgets.options.widget #make drop-down list\ndb.item.receptacle.requires = IS_EMPTY_OR(IS_IN_DB(db,\'receptacle.id\',\'%(name)s\')), #allow receptacle to be empty\ndb.item.receptacle.widget = SQLFORM.widgets.options.widget #make drop-down list\ndb.item.condition_.requires = IS_EMPTY_OR(IS_IN_DB(db,\'condition_.id\',\'%(name)s\')), #allow condition to be empty\ndb.item.condition_.widget = SQLFORM.widgets.options.widget #make drop-down list  \ndb.item.shelf.requires = IS_EMPTY_OR(IS_IN_DB(db,\'shelf.id\',\'%(shelfcode)s %(disposalcode)s\')), #allow condition to be empty\ndb.item.shelf.widget = SQLFORM.widgets.options.widget #make drop-down list         \n\n#for printing manifest to PDF \n#Each record is a form layout\ndb.define_table(\'manifest_layout\',\n                #Number elements rom 1000 to make room from change.\n                # Elements on first page start with 1000 + box number. Example: #1 Generator number = element 1001\n                #Elements on page 2 start with 2000\n                Field(\'type\',\'string\'),\n                Field(\'name\',\'string\'),\n                Field(\'element\',\'integer\'),\n                Field(\'x1\',\'double\'), # x and y are botton left corner\n                Field(\'y1\',\'double\'),\n                Field(\'x2\',\'double\'), # x and y are botton left corner\n                Field(\'y2\',\'double\'),\n                Field(\'font\',\'string\'),\n                Field(\'size\',\'double\'),\n                Field(\'bold\',\'integer\'),\n                Field(\'italic\',\'integer\'),\n                Field(\'underline\',\'integer\'),\n                Field(\'foreground\',\'integer\'),\n                Field(\'background\',\'integer\'),\n                Field(\'align\',\'string\'),\n                Field(\'priority\',\'integer\'),\n                Field(\'multiline\',\'integer\'),\n                )\n\n#FLAMMABLE LIQUIDS, N.O.S.\ndb.define_table(\'site\',\n                Field(\'sitename\',\'string\'),\n                #EPA Identification Number\n                Field(\'epaid\',\'string\'),\n                format=\'%(sitename)s\'\n               )\n\n\n## Fill empty tables\n#if db(db.person).isempty():\n    #db.chemindex.cname="Acetone"\n#for row in db(db.chemindex.id > 0).select():\n#    if (row.id % 2 == 0):\n#        row.update_record(treatment=1)\n#    else:\n#        row.update_record(treatment=2)\n'
p7
sS'snapshot'
p8
(dp9
S'exception'
p10
(dp11
S'__hash__'
p12
S"<method-wrapper '__hash__' of exceptions.AttributeError object>"
p13
sS'__setattr__'
p14
S"<method-wrapper '__setattr__' of exceptions.AttributeError object>"
p15
sS'__reduce_ex__'
p16
S'<built-in method __reduce_ex__ of exceptions.AttributeError object>'
p17
sS'__getslice__'
p18
S"<method-wrapper '__getslice__' of exceptions.AttributeError object>"
p19
sS'__getitem__'
p20
S"<method-wrapper '__getitem__' of exceptions.AttributeError object>"
p21
sS'__setstate__'
p22
S'<built-in method __setstate__ of exceptions.AttributeError object>'
p23
sS'args'
p24
S'("\'Table\' object has no attribute \'cabinet\'",)'
p25
sS'__reduce__'
p26
S'<built-in method __reduce__ of exceptions.AttributeError object>'
p27
sS'__str__'
p28
S"<method-wrapper '__str__' of exceptions.AttributeError object>"
p29
sS'__format__'
p30
S'<built-in method __format__ of exceptions.AttributeError object>'
p31
sS'__getattribute__'
p32
S"<method-wrapper '__getattribute__' of exceptions.AttributeError object>"
p33
sS'__class__'
p34
S"<type 'exceptions.AttributeError'>"
p35
sS'__unicode__'
p36
S'<built-in method __unicode__ of exceptions.AttributeError object>'
p37
sS'__delattr__'
p38
S"<method-wrapper '__delattr__' of exceptions.AttributeError object>"
p39
sS'__subclasshook__'
p40
S'<built-in method __subclasshook__ of type object>'
p41
sS'__repr__'
p42
S"<method-wrapper '__repr__' of exceptions.AttributeError object>"
p43
sS'__dict__'
p44
S'{}'
p45
sS'__sizeof__'
p46
S'<built-in method __sizeof__ of exceptions.AttributeError object>'
p47
sS'__doc__'
p48
S"'Attribute not found.'"
p49
sS'__init__'
p50
S"<method-wrapper '__init__' of exceptions.AttributeError object>"
p51
sS'__new__'
p52
S'<built-in method __new__ of type object>'
p53
ssS'evalue'
p54
S"'Table' object has no attribute 'cabinet'"
p55
sS'request'
p56
cgluon.html
XML_unpickle
p57
(S'sP^\x00\x00<div><table><tr><td style="font-weight:bold;vertical-align:top;">ajax</td><td style="vertical-align:top;">:</td><td><div>False</div></td></tr><tr><td style="font-weight:bold;vertical-align:top;">application</td><td style="vertical-align:top;">:</td><td><div>chemwastepro</div></td></tr><tr><td style="font-weight:bold;vertical-align:top;">args</td><td style="vertical-align:top;">:</td><td><div><table></table></div></td></tr><tr><td style="font-weight:bold;vertical-align:top;">cid</td><td style="vertical-align:top;">:</td><td><div>None</div></td></tr><tr><td style="font-weight:bold;vertical-align:top;">client</td><td style="vertical-align:top;">:</td><td><div>127.0.0.1</div></td></tr><tr><td style="font-weight:bold;vertical-align:top;">controller</td><td style="vertical-align:top;">:</td><td><div>inventory</div></td></tr><tr><td style="font-weight:bold;vertical-align:top;">cookies</td><td style="vertical-align:top;">:</td><td><div><table><tr><td style="font-weight:bold;vertical-align:top;">session_id_admin</td><td style="vertical-align:top;">:</td><td><div>127.0.0.1-1abedb11-279e-46ed-b14a-d66450ec19f0<table><tr><td style="font-weight:bold;vertical-align:top;">comment</td><td style="vertical-align:top;">:</td><td><div></div></td></tr><tr><td style="font-weight:bold;vertical-align:top;">domain</td><td style="vertical-align:top;">:</td><td><div></div></td></tr><tr><td style="font-weight:bold;vertical-align:top;">expires</td><td style="vertical-align:top;">:</td><td><div></div></td></tr><tr><td style="font-weight:bold;vertical-align:top;">httponly</td><td style="vertical-align:top;">:</td><td><div></div></td></tr><tr><td style="font-weight:bold;vertical-align:top;">max-age</td><td style="vertical-align:top;">:</td><td><div></div></td></tr><tr><td style="font-weight:bold;vertical-align:top;">path</td><td style="vertical-align:top;">:</td><td><div></div></td></tr><tr><td style="font-weight:bold;vertical-align:top;">secure</td><td style="vertical-align:top;">:</td><td><div></div></td></tr><tr><td style="font-weight:bold;vertical-align:top;">version</td><td style="vertical-align:top;">:</td><td><div></div></td></tr></table></div></td></tr><tr><td style="font-weight:bold;vertical-align:top;">session_id_chemwastepro</td><td style="vertical-align:top;">:</td><td><div>127.0.0.1-f0677edc-0653-4f38-a344-5fdac10e1688<table><tr><td style="font-weight:bold;vertical-align:top;">comment</td><td style="vertical-align:top;">:</td><td><div></div></td></tr><tr><td style="font-weight:bold;vertical-align:top;">domain</td><td style="vertical-align:top;">:</td><td><div></div></td></tr><tr><td style="font-weight:bold;vertical-align:top;">expires</td><td style="vertical-align:top;">:</td><td><div></div></td></tr><tr><td style="font-weight:bold;vertical-align:top;">httponly</td><td style="vertical-align:top;">:</td><td><div></div></td></tr><tr><td style="font-weight:bold;vertical-align:top;">max-age</td><td style="vertical-align:top;">:</td><td><div></div></td></tr><tr><td style="font-weight:bold;vertical-align:top;">path</td><td style="vertical-align:top;">:</td><td><div></div></td></tr><tr><td style="font-weight:bold;vertical-align:top;">secure</td><td style="vertical-align:top;">:</td><td><div></div></td></tr><tr><td style="font-weight:bold;vertical-align:top;">version</td><td style="vertical-align:top;">:</td><td><div></div></td></tr></table></div></td></tr><tr><td style="font-weight:bold;vertical-align:top;">session_id_welcome</td><td style="vertical-align:top;">:</td><td><div>127.0.0.1-27003605-8198-4645-9170-58b4fd7560d1<table><tr><td style="font-weight:bold;vertical-align:top;">comment</td><td style="vertical-align:top;">:</td><td><div></div></td></tr><tr><td style="font-weight:bold;vertical-align:top;">domain</td><td style="vertical-align:top;">:</td><td><div></div></td></tr><tr><td style="font-weight:bold;vertical-align:top;">expires</td><td style="vertical-align:top;">:</td><td><div></div></td></tr><tr><td style="font-weight:bold;vertical-align:top;">httponly</td><td style="vertical-align:top;">:</td><td><div></div></td></tr><tr><td style="font-weight:bold;vertical-align:top;">max-age</td><td style="vertical-align:top;">:</td><td><div></div></td></tr><tr><td style="font-weight:bold;vertical-align:top;">path</td><td style="vertical-align:top;">:</td><td><div></div></td></tr><tr><td style="font-weight:bold;vertical-align:top;">secure</td><td style="vertical-align:top;">:</td><td><div></div></td></tr><tr><td style="font-weight:bold;vertical-align:top;">version</td><td style="vertical-align:top;">:</td><td><div></div></td></tr></table></div></td></tr></table></div></td></tr><tr><td style="font-weight:bold;vertical-align:top;">env</td><td style="vertical-align:top;">:</td><td><div><table><tr><td style="font-weight:bold;vertical-align:top;">HTTP_ACCEPT</td><td style="vertical-align:top;">:</td><td><div>text/html,application/xhtml+xml,application/xml;q=0.9,image/webp,*/*;q=0.8</div></td></tr><tr><td style="font-weight:bold;vertical-align:top;">HTTP_ACCEPT_ENCODING</td><td style="vertical-align:top;">:</td><td><div>gzip, deflate, sdch, br</div></td></tr><tr><td style="font-weight:bold;vertical-align:top;">HTTP_ACCEPT_LANGUAGE</td><td style="vertical-align:top;">:</td><td><div>en-US,en;q=0.8,ms;q=0.6</div></td></tr><tr><td style="font-weight:bold;vertical-align:top;">HTTP_CACHE_CONTROL</td><td style="vertical-align:top;">:</td><td><div>max-age=0</div></td></tr><tr><td style="font-weight:bold;vertical-align:top;">HTTP_CONNECTION</td><td style="vertical-align:top;">:</td><td><div>keep-alive</div></td></tr><tr><td style="font-weight:bold;vertical-align:top;">HTTP_COOKIE</td><td style="vertical-align:top;">:</td><td><div>session_id_welcome=127.0.0.1-27003605-8198-4645-9170-58b4fd7560d1; session_id_chemwastepro=127.0.0.1-f0677edc-0653-4f38-a344-5fdac10e1688; session_id_admin=127.0.0.1-1abedb11-279e-46ed-b14a-d66450ec19f0</div></td></tr><tr><td style="font-weight:bold;vertical-align:top;">HTTP_HOST</td><td style="vertical-align:top;">:</td><td><div>127.0.0.1:8000</div></td></tr><tr><td style="font-weight:bold;vertical-align:top;">HTTP_REFERER</td><td style="vertical-align:top;">:</td><td><div>http://127.0.0.1:8000/chemwastepro/default/index</div></td></tr><tr><td style="font-weight:bold;vertical-align:top;">HTTP_UPGRADE_INSECURE_REQUESTS</td><td style="vertical-align:top;">:</td><td><div>1</div></td></tr><tr><td style="font-weight:bold;vertical-align:top;">HTTP_USER_AGENT</td><td style="vertical-align:top;">:</td><td><div>Mozilla/5.0 (Macintosh; Intel Mac OS X 10_12_2) AppleWebKit/537.36 (KHTML, like Gecko) Chrome/55.0.2883.95 Safari/537.36</div></td></tr><tr><td style="font-weight:bold;vertical-align:top;">PATH_INFO</td><td style="vertical-align:top;">:</td><td><div>/chemwastepro/inventory/item</div></td></tr><tr><td style="font-weight:bold;vertical-align:top;">QUERY_STRING</td><td style="vertical-align:top;">:</td><td><div></div></td></tr><tr><td style="font-weight:bold;vertical-align:top;">REMOTE_ADDR</td><td style="vertical-align:top;">:</td><td><div>127.0.0.1</div></td></tr><tr><td style="font-weight:bold;vertical-align:top;">REMOTE_PORT</td><td style="vertical-align:top;">:</td><td><div>51021</div></td></tr><tr><td style="font-weight:bold;vertical-align:top;">REQUEST_METHOD</td><td style="vertical-align:top;">:</td><td><div>GET</div></td></tr><tr><td style="font-weight:bold;vertical-align:top;">SCRIPT_NAME</td><td style="vertical-align:top;">:</td><td><div></div></td></tr><tr><td style="font-weight:bold;vertical-align:top;">SERVER_NAME</td><td style="vertical-align:top;">:</td><td><div>M1PDG8WL</div></td></tr><tr><td style="font-weight:bold;vertical-align:top;">SERVER_PORT</td><td style="vertical-align:top;">:</td><td><div>8000</div></td></tr><tr><td style="font-weight:bold;vertical-align:top;">SERVER_PROTOCOL</td><td style="vertical-align:top;">:</td><td><div>HTTP/1.1</div></td></tr><tr><td style="font-weight:bold;vertical-align:top;">SERVER_SOFTWARE</td><td style="vertical-align:top;">:</td><td><div>Rocket 1.2.6</div></td></tr><tr><td style="font-weight:bold;vertical-align:top;">app_folders</td><td style="vertical-align:top;">:</td><td><div>set([&#x27;/Users/byoung/Desktop/web2py/web2py.app/Contents/Resources/applications/admin/&#x27;, &#x27;/Users/byoung/Desktop/web2py/web2py.app/Contents/Resources/applications/welcome/&#x27;, &#x27;/Users/byoung/Desktop/web2py/web2py.app/Contents/Resources/applications/chemwastepro/&#x27;])</div></td></tr><tr><td style="font-weight:bold;vertical-align:top;">applications_parent</td><td style="vertical-align:top;">:</td><td><div>/Users/byoung/Desktop/web2py/web2py.app/Contents/Resources</div></td></tr><tr><td style="font-weight:bold;vertical-align:top;">cmd_args</td><td style="vertical-align:top;">:</td><td><div><table></table></div></td></tr><tr><td style="font-weight:bold;vertical-align:top;">cmd_options</td><td style="vertical-align:top;">:</td><td><div>&lt;Values at 0x108549368: {&#x27;verbose&#x27;: False, &#x27;ip&#x27;: &#x27;127.0.0.1&#x27;, &#x27;debuglevel&#x27;: 30, &#x27;with_scheduler&#x27;: False, &#x27;shutdown_timeout&#x27;: 5, &#x27;taskbar&#x27;: False, &#x27;with_coverage&#x27;: False, &#x27;pid_filename&#x27;: &#x27;httpserver.pid&#x27;, &#x27;maxthreads&#x27;: None, &#x27;softcron&#x27;: False, &#x27;server_name&#x27;: &#x27;M1PDG8WL&#x27;, &#x27;bpython&#x27;: False, &#x27;nogui&#x27;: False, &#x27;port&#x27;: 8000, &#x27;print_errors&#x27;: False, &#x27;extcron&#x27;: False, &#x27;runcron&#x27;: False, &#x27;run_system_tests&#x27;: False, &#x27;test&#x27;: None, &#x27;folder&#x27;: &#x27;/Users/byoung/Desktop/web2py/web2py.app/Contents/Resources&#x27;, &#x27;config&#x27;: &#x27;&#x27;, &#x27;minthreads&#x27;: None, &#x27;shell&#x27;: None, &#x27;run&#x27;: &#x27;&#x27;, &#x27;log_filename&#x27;: &#x27;httpserver.log&#x27;, &#x27;profiler_dir&#x27;: None, &#x27;args&#x27;: [&#x27;&#x27;], &#x27;socket_timeout&#x27;: 5, &#x27;ssl_ca_certificate&#x27;: None, &#x27;scheduler&#x27;: None, &#x27;interfaces&#x27;: None, &#x27;ssl_private_key&#x27;: &#x27;&#x27;, &#x27;gae&#x27;: None, &#x27;password&#x27;: &#x27;******&#x27;, &#x27;request_queue_size&#x27;: 5, &#x27;ssl_certificate&#x27;: &#x27;&#x27;, &#x27;cronjob&#x27;: False, &#x27;numthreads&#x27;: None, &#x27;quiet&#x27;: False, &#x27;import_models&#x27;: False, &#x27;timeout&#x27;: 10, &#x27;plain&#x27;: False, &#x27;nobanner&#x27;: False}&gt;</div></td></tr><tr><td style="font-weight:bold;vertical-align:top;">db_sessions</td><td style="vertical-align:top;">:</td><td><div>set([])</div></td></tr><tr><td style="font-weight:bold;vertical-align:top;">debugging</td><td style="vertical-align:top;">:</td><td><div>True</div></td></tr><tr><td style="font-weight:bold;vertical-align:top;">gluon_parent</td><td style="vertical-align:top;">:</td><td><div>/Users/byoung/Desktop/web2py/web2py.app/Contents/Resources</div></td></tr><tr><td style="font-weight:bold;vertical-align:top;">http_accept</td><td style="vertical-align:top;">:</td><td><div>text/html,application/xhtml+xml,application/xml;q=0.9,image/webp,*/*;q=0.8</div></td></tr><tr><td style="font-weight:bold;vertical-align:top;">http_accept_encoding</td><td style="vertical-align:top;">:</td><td><div>gzip, deflate, sdch, br</div></td></tr><tr><td style="font-weight:bold;vertical-align:top;">http_accept_language</td><td style="vertical-align:top;">:</td><td><div>en-US,en;q=0.8,ms;q=0.6</div></td></tr><tr><td style="font-weight:bold;vertical-align:top;">http_cache_control</td><td style="vertical-align:top;">:</td><td><div>max-age=0</div></td></tr><tr><td style="font-weight:bold;vertical-align:top;">http_connection</td><td style="vertical-align:top;">:</td><td><div>keep-alive</div></td></tr><tr><td style="font-weight:bold;vertical-align:top;">http_cookie</td><td style="vertical-align:top;">:</td><td><div>session_id_welcome=127.0.0.1-27003605-8198-4645-9170-58b4fd7560d1; session_id_chemwastepro=127.0.0.1-f0677edc-0653-4f38-a344-5fdac10e1688; session_id_admin=127.0.0.1-1abedb11-279e-46ed-b14a-d66450ec19f0</div></td></tr><tr><td style="font-weight:bold;vertical-align:top;">http_host</td><td style="vertical-align:top;">:</td><td><div>127.0.0.1:8000</div></td></tr><tr><td style="font-weight:bold;vertical-align:top;">http_referer</td><td style="vertical-align:top;">:</td><td><div>http://127.0.0.1:8000/chemwastepro/default/index</div></td></tr><tr><td style="font-weight:bold;vertical-align:top;">http_upgrade_insecure_requests</td><td style="vertical-align:top;">:</td><td><div>1</div></td></tr><tr><td style="font-weight:bold;vertical-align:top;">http_user_agent</td><td style="vertical-align:top;">:</td><td><div>Mozilla/5.0 (Macintosh; Intel Mac OS X 10_12_2) AppleWebKit/537.36 (KHTML, like Gecko) Chrome/55.0.2883.95 Safari/537.36</div></td></tr><tr><td style="font-weight:bold;vertical-align:top;">is_jython</td><td style="vertical-align:top;">:</td><td><div>False</div></td></tr><tr><td style="font-weight:bold;vertical-align:top;">is_pypy</td><td style="vertical-align:top;">:</td><td><div>False</div></td></tr><tr><td style="font-weight:bold;vertical-align:top;">is_source</td><td style="vertical-align:top;">:</td><td><div>True</div></td></tr><tr><td style="font-weight:bold;vertical-align:top;">local_hosts</td><td style="vertical-align:top;">:</td><td><div><table><tr><td><div>::1</div></td></tr><tr><td><div>M1PDG8WL</div></td></tr><tr><td><div>::ffff:127.0.0.1</div></td></tr><tr><td><div>127.0.0.1</div></td></tr></table></div></td></tr><tr><td style="font-weight:bold;vertical-align:top;">path_info</td><td style="vertical-align:top;">:</td><td><div>/chemwastepro/inventory/item</div></td></tr><tr><td style="font-weight:bold;vertical-align:top;">query_string</td><td style="vertical-align:top;">:</td><td><div></div></td></tr><tr><td style="font-weight:bold;vertical-align:top;">remote_addr</td><td style="vertical-align:top;">:</td><td><div>127.0.0.1</div></td></tr><tr><td style="font-weight:bold;vertical-align:top;">remote_port</td><td style="vertical-align:top;">:</td><td><div>51021</div></td></tr><tr><td style="font-weight:bold;vertical-align:top;">request_method</td><td style="vertical-align:top;">:</td><td><div>GET</div></td></tr><tr><td style="font-weight:bold;vertical-align:top;">request_uri</td><td style="vertical-align:top;">:</td><td><div>/chemwastepro/inventory/item</div></td></tr><tr><td style="font-weight:bold;vertical-align:top;">script_name</td><td style="vertical-align:top;">:</td><td><div></div></td></tr><tr><td style="font-weight:bold;vertical-align:top;">server_name</td><td style="vertical-align:top;">:</td><td><div>M1PDG8WL</div></td></tr><tr><td style="font-weight:bold;vertical-align:top;">server_port</td><td style="vertical-align:top;">:</td><td><div>8000</div></td></tr><tr><td style="font-weight:bold;vertical-align:top;">server_protocol</td><td style="vertical-align:top;">:</td><td><div>HTTP/1.1</div></td></tr><tr><td style="font-weight:bold;vertical-align:top;">server_software</td><td style="vertical-align:top;">:</td><td><div>Rocket 1.2.6</div></td></tr><tr><td style="font-weight:bold;vertical-align:top;">web2py_path</td><td style="vertical-align:top;">:</td><td><div>/Users/byoung/Desktop/web2py/web2py.app/Contents/Resources</div></td></tr><tr><td style="font-weight:bold;vertical-align:top;">web2py_version</td><td style="vertical-align:top;">:</td><td><div>2.14.6-stable+timestamp.2016.05.10.00.21.47</div></td></tr><tr><td style="font-weight:bold;vertical-align:top;">wsgi.errors</td><td style="vertical-align:top;">:</td><td><div>&lt;open file &#x27;&lt;stderr&gt;&#x27;, mode &#x27;w&#x27; at 0x1000ae270&gt;</div></td></tr><tr><td style="font-weight:bold;vertical-align:top;">wsgi.file_wrapper</td><td style="vertical-align:top;">:</td><td><div>&lt;class wsgiref.util.FileWrapper at 0x10853d328&gt;</div></td></tr><tr><td style="font-weight:bold;vertical-align:top;">wsgi.input</td><td style="vertical-align:top;">:</td><td><div>&lt;socket._fileobject object at 0x10d59e550&gt;</div></td></tr><tr><td style="font-weight:bold;vertical-align:top;">wsgi.multiprocess</td><td style="vertical-align:top;">:</td><td><div>False</div></td></tr><tr><td style="font-weight:bold;vertical-align:top;">wsgi.multithread</td><td style="vertical-align:top;">:</td><td><div>True</div></td></tr><tr><td style="font-weight:bold;vertical-align:top;">wsgi.run_once</td><td style="vertical-align:top;">:</td><td><div>False</div></td></tr><tr><td style="font-weight:bold;vertical-align:top;">wsgi.url_scheme</td><td style="vertical-align:top;">:</td><td><div>http</div></td></tr><tr><td style="font-weight:bold;vertical-align:top;">wsgi.version</td><td style="vertical-align:top;">:</td><td><div><table><tr><td><div>1</div></td></tr><tr><td><div>0</div></td></tr></table></div></td></tr><tr><td style="font-weight:bold;vertical-align:top;">wsgi_errors</td><td style="vertical-align:top;">:</td><td><div>&lt;open file &#x27;&lt;stderr&gt;&#x27;, mode &#x27;w&#x27; at 0x1000ae270&gt;</div></td></tr><tr><td style="font-weight:bold;vertical-align:top;">wsgi_file_wrapper</td><td style="vertical-align:top;">:</td><td><div>&lt;class wsgiref.util.FileWrapper at 0x10853d328&gt;</div></td></tr><tr><td style="font-weight:bold;vertical-align:top;">wsgi_input</td><td style="vertical-align:top;">:</td><td><div>&lt;socket._fileobject object at 0x10d59e550&gt;</div></td></tr><tr><td style="font-weight:bold;vertical-align:top;">wsgi_multiprocess</td><td style="vertical-align:top;">:</td><td><div>False</div></td></tr><tr><td style="font-weight:bold;vertical-align:top;">wsgi_multithread</td><td style="vertical-align:top;">:</td><td><div>True</div></td></tr><tr><td style="font-weight:bold;vertical-align:top;">wsgi_run_once</td><td style="vertical-align:top;">:</td><td><div>False</div></td></tr><tr><td style="font-weight:bold;vertical-align:top;">wsgi_url_scheme</td><td style="vertical-align:top;">:</td><td><div>http</div></td></tr><tr><td style="font-weight:bold;vertical-align:top;">wsgi_version</td><td style="vertical-align:top;">:</td><td><div><table><tr><td><div>1</div></td></tr><tr><td><div>0</div></td></tr></table></div></td></tr></table></div></td></tr><tr><td style="font-weight:bold;vertical-align:top;">extension</td><td style="vertical-align:top;">:</td><td><div>html</div></td></tr><tr><td style="font-weight:bold;vertical-align:top;">folder</td><td style="vertical-align:top;">:</td><td><div>/Users/byoung/Desktop/web2py/web2py.app/Contents/Resources/applications/chemwastepro/</div></td></tr><tr><td style="font-weight:bold;vertical-align:top;">function</td><td style="vertical-align:top;">:</td><td><div>item</div></td></tr><tr><td style="font-weight:bold;vertical-align:top;">global_settings</td><td style="vertical-align:top;">:</td><td><div><table><tr><td style="font-weight:bold;vertical-align:top;">app_folders</td><td style="vertical-align:top;">:</td><td><div>set([&#x27;/Users/byoung/Desktop/web2py/web2py.app/Contents/Resources/applications/admin/&#x27;, &#x27;/Users/byoung/Desktop/web2py/web2py.app/Contents/Resources/applications/welcome/&#x27;, &#x27;/Users/byoung/Desktop/web2py/web2py.app/Contents/Resources/applications/chemwastepro/&#x27;])</div></td></tr><tr><td style="font-weight:bold;vertical-align:top;">applications_parent</td><td style="vertical-align:top;">:</td><td><div>/Users/byoung/Desktop/web2py/web2py.app/Contents/Resources</div></td></tr><tr><td style="font-weight:bold;vertical-align:top;">cmd_args</td><td style="vertical-align:top;">:</td><td><div><table></table></div></td></tr><tr><td style="font-weight:bold;vertical-align:top;">cmd_options</td><td style="vertical-align:top;">:</td><td><div>&lt;Values at 0x108549368: {&#x27;verbose&#x27;: False, &#x27;ip&#x27;: &#x27;127.0.0.1&#x27;, &#x27;debuglevel&#x27;: 30, &#x27;with_scheduler&#x27;: False, &#x27;shutdown_timeout&#x27;: 5, &#x27;taskbar&#x27;: False, &#x27;with_coverage&#x27;: False, &#x27;pid_filename&#x27;: &#x27;httpserver.pid&#x27;, &#x27;maxthreads&#x27;: None, &#x27;softcron&#x27;: False, &#x27;server_name&#x27;: &#x27;M1PDG8WL&#x27;, &#x27;bpython&#x27;: False, &#x27;nogui&#x27;: False, &#x27;port&#x27;: 8000, &#x27;print_errors&#x27;: False, &#x27;extcron&#x27;: False, &#x27;runcron&#x27;: False, &#x27;run_system_tests&#x27;: False, &#x27;test&#x27;: None, &#x27;folder&#x27;: &#x27;/Users/byoung/Desktop/web2py/web2py.app/Contents/Resources&#x27;, &#x27;config&#x27;: &#x27;&#x27;, &#x27;minthreads&#x27;: None, &#x27;shell&#x27;: None, &#x27;run&#x27;: &#x27;&#x27;, &#x27;log_filename&#x27;: &#x27;httpserver.log&#x27;, &#x27;profiler_dir&#x27;: None, &#x27;args&#x27;: [&#x27;&#x27;], &#x27;socket_timeout&#x27;: 5, &#x27;ssl_ca_certificate&#x27;: None, &#x27;scheduler&#x27;: None, &#x27;interfaces&#x27;: None, &#x27;ssl_private_key&#x27;: &#x27;&#x27;, &#x27;gae&#x27;: None, &#x27;password&#x27;: &#x27;******&#x27;, &#x27;request_queue_size&#x27;: 5, &#x27;ssl_certificate&#x27;: &#x27;&#x27;, &#x27;cronjob&#x27;: False, &#x27;numthreads&#x27;: None, &#x27;quiet&#x27;: False, &#x27;import_models&#x27;: False, &#x27;timeout&#x27;: 10, &#x27;plain&#x27;: False, &#x27;nobanner&#x27;: False}&gt;</div></td></tr><tr><td style="font-weight:bold;vertical-align:top;">db_sessions</td><td style="vertical-align:top;">:</td><td><div>set([])</div></td></tr><tr><td style="font-weight:bold;vertical-align:top;">debugging</td><td style="vertical-align:top;">:</td><td><div>True</div></td></tr><tr><td style="font-weight:bold;vertical-align:top;">gluon_parent</td><td style="vertical-align:top;">:</td><td><div>/Users/byoung/Desktop/web2py/web2py.app/Contents/Resources</div></td></tr><tr><td style="font-weight:bold;vertical-align:top;">is_jython</td><td style="vertical-align:top;">:</td><td><div>False</div></td></tr><tr><td style="font-weight:bold;vertical-align:top;">is_pypy</td><td style="vertical-align:top;">:</td><td><div>False</div></td></tr><tr><td style="font-weight:bold;vertical-align:top;">is_source</td><td style="vertical-align:top;">:</td><td><div>True</div></td></tr><tr><td style="font-weight:bold;vertical-align:top;">local_hosts</td><td style="vertical-align:top;">:</td><td><div><table><tr><td><div>::1</div></td></tr><tr><td><div>M1PDG8WL</div></td></tr><tr><td><div>::ffff:127.0.0.1</div></td></tr><tr><td><div>127.0.0.1</div></td></tr></table></div></td></tr><tr><td style="font-weight:bold;vertical-align:top;">web2py_version</td><td style="vertical-align:top;">:</td><td><div>2.14.6-stable+timestamp.2016.05.10.00.21.47</div></td></tr></table></div></td></tr><tr><td style="font-weight:bold;vertical-align:top;">is_https</td><td style="vertical-align:top;">:</td><td><div>False</div></td></tr><tr><td style="font-weight:bold;vertical-align:top;">is_local</td><td style="vertical-align:top;">:</td><td><div>True</div></td></tr><tr><td style="font-weight:bold;vertical-align:top;">is_restful</td><td style="vertical-align:top;">:</td><td><div>False</div></td></tr><tr><td style="font-weight:bold;vertical-align:top;">is_scheduler</td><td style="vertical-align:top;">:</td><td><div>False</div></td></tr><tr><td style="font-weight:bold;vertical-align:top;">is_shell</td><td style="vertical-align:top;">:</td><td><div>False</div></td></tr><tr><td style="font-weight:bold;vertical-align:top;">now</td><td style="vertical-align:top;">:</td><td><div>datetime.datetime(2017, 1, 30, 15, 36, 55, 538)</div></td></tr><tr><td style="font-weight:bold;vertical-align:top;">raw_args</td><td style="vertical-align:top;">:</td><td><div></div></td></tr><tr><td style="font-weight:bold;vertical-align:top;">raw_extension</td><td style="vertical-align:top;">:</td><td><div>None</div></td></tr><tr><td style="font-weight:bold;vertical-align:top;">url</td><td style="vertical-align:top;">:</td><td><div>/chemwastepro/inventory/item</div></td></tr><tr><td style="font-weight:bold;vertical-align:top;">utcnow</td><td style="vertical-align:top;">:</td><td><div>datetime.datetime(2017, 1, 30, 23, 36, 55, 547)</div></td></tr><tr><td style="font-weight:bold;vertical-align:top;">wsgi</td><td style="vertical-align:top;">:</td><td><div>&lt;gluon.main.LazyWSGI object at 0x10684a550&gt;</div></td></tr></table></div>'
tRp58
sS'frames'
p59
(lp60
(dp61
S'file'
p62
S'/Users/byoung/Desktop/web2py/web2py.app/Contents/Resources/gluon/restricted.py'
p63
sS'dump'
p64
(dp65
sS'lnum'
p66
I227
sS'lines'
p67
(dp68
I224
S'            ccode = code'
p69
sI225
S'        else:'
p70
sI226
S'            ccode = compile2(code, layer)'
p71
sI227
S'        exec ccode in environment'
p72
sI228
S'    except HTTP:'
p73
sI229
S'        raise'
p74
sI230
S'    except RestrictedError:'
p75
sI231
S'        # do not encapsulate (obfuscate) the original RestrictedError'
p76
sI222
S'    try:'
p77
sI223
S'        if isinstance(code, types.CodeType):'
p78
ssS'call'
p79
S"(code='# -*- coding: utf-8 -*-\\n\\n#######################...   else:\\n#        row.update_record(treatment=2)\\n', environment={'A': <class 'gluon.html.A'>, 'ANY_OF': <class 'gluon.validators.ANY_OF'>, 'ASSIGNJS': <function ASSIGNJS>, 'AppConfig': <function AppConfig>, 'Auth': <class 'gluon.tools.Auth'>, 'B': <class 'gluon.html.B'>, 'BEAUTIFY': <class 'gluon.html.BEAUTIFY'>, 'BODY': <class 'gluon.html.BODY'>, 'BR': <class 'gluon.html.BR'>, 'BUTTON': <class 'gluon.html.BUTTON'>, ...}, layer='/Users/byoung/Desktop/web2py/web2py.app/Contents/Resources/applications/chemwastepro/models/db.py')"
p80
sS'func'
p81
S'restricted'
p82
sa(dp83
g62
S'/Users/byoung/Desktop/web2py/web2py.app/Contents/Resources/applications/chemwastepro/models/db.py'
p84
sg64
(dp85
sg66
I269
sg67
(dp86
I264
S'                Field(\'shelfcode\',\'string\',default=""),'
p87
sI265
S"                Field('disposalcode','string'),"
p88
sI266
S"                Field('scabinet','reference cabinet'),"
p89
sI267
S"                format='%(shelfcode)s'"
p90
sI268
S'               )'
p91
sI269
S"db.shelf.cabinet.requires = IS_IN_DB(db,'cabinet.id','%(name)s')#make drop down list of cabinets"
p92
sI270
S''
sI271
S'#drum, pallet, bin'
p93
sI272
S"db.define_table('shipment',"
p94
sI273
S"                Field('manifest',type='string',"
p95
ssg79
S'()'
p96
sg81
S'<module>'
p97
sasS'pyver'
p98
S'Python 2.7.3: /Users/byoung/Desktop/web2py/web2py.app/Contents/MacOS/python (prefix: /Users/byoung/Desktop/web2py/web2py.app/Contents/Resources)'
p99
sS'session'
p100
g57
(S's\x1a\x00\x00\x00<div><table></table></div>'
tRp101
sS'etype'
p102
S"<type 'exceptions.AttributeError'>"
p103
sS'date'
p104
S'Mon Jan 30 15:36:55 2017'
p105
sS'response'
p106
g57
(S's\xb1\x17\x00\x00<div><table><tr><td style="font-weight:bold;vertical-align:top;">body</td><td style="vertical-align:top;">:</td><td><div>&lt;cStringIO.StringO object at 0x10e2acdc0&gt;</div></td></tr><tr><td style="font-weight:bold;vertical-align:top;">cookies</td><td style="vertical-align:top;">:</td><td><div><table><tr><td style="font-weight:bold;vertical-align:top;">session_id_chemwastepro</td><td style="vertical-align:top;">:</td><td><div>127.0.0.1-eff1af5b-a6c3-499c-9114-db3a8551220a<table><tr><td style="font-weight:bold;vertical-align:top;">comment</td><td style="vertical-align:top;">:</td><td><div></div></td></tr><tr><td style="font-weight:bold;vertical-align:top;">domain</td><td style="vertical-align:top;">:</td><td><div></div></td></tr><tr><td style="font-weight:bold;vertical-align:top;">expires</td><td style="vertical-align:top;">:</td><td><div></div></td></tr><tr><td style="font-weight:bold;vertical-align:top;">httponly</td><td style="vertical-align:top;">:</td><td><div></div></td></tr><tr><td style="font-weight:bold;vertical-align:top;">max-age</td><td style="vertical-align:top;">:</td><td><div></div></td></tr><tr><td style="font-weight:bold;vertical-align:top;">path</td><td style="vertical-align:top;">:</td><td><div>/</div></td></tr><tr><td style="font-weight:bold;vertical-align:top;">secure</td><td style="vertical-align:top;">:</td><td><div></div></td></tr><tr><td style="font-weight:bold;vertical-align:top;">version</td><td style="vertical-align:top;">:</td><td><div></div></td></tr></table></div></td></tr></table></div></td></tr><tr><td style="font-weight:bold;vertical-align:top;">delimiters</td><td style="vertical-align:top;">:</td><td><div><table><tr><td><div>{{</div></td></tr><tr><td><div>}}</div></td></tr></table></div></td></tr><tr><td style="font-weight:bold;vertical-align:top;">files</td><td style="vertical-align:top;">:</td><td><div><table></table></div></td></tr><tr><td style="font-weight:bold;vertical-align:top;">flash</td><td style="vertical-align:top;">:</td><td><div></div></td></tr><tr><td style="font-weight:bold;vertical-align:top;">form_label_separator</td><td style="vertical-align:top;">:</td><td><div></div></td></tr><tr><td style="font-weight:bold;vertical-align:top;">formstyle</td><td style="vertical-align:top;">:</td><td><div>bootstrap3_inline</div></td></tr><tr><td style="font-weight:bold;vertical-align:top;">generic_patterns</td><td style="vertical-align:top;">:</td><td><div><table><tr><td><div>*</div></td></tr></table></div></td></tr><tr><td style="font-weight:bold;vertical-align:top;">headers</td><td style="vertical-align:top;">:</td><td><div><table><tr><td style="font-weight:bold;vertical-align:top;">Content-Security-Policy</td><td style="vertical-align:top;">:</td><td><div>frame-ancestors &#x27;self&#x27;</div></td></tr><tr><td style="font-weight:bold;vertical-align:top;">X-Frame-Options</td><td style="vertical-align:top;">:</td><td><div>SAMEORIGIN</div></td></tr><tr><td style="font-weight:bold;vertical-align:top;">X-Powered-By</td><td style="vertical-align:top;">:</td><td><div>web2py</div></td></tr></table></div></td></tr><tr><td style="font-weight:bold;vertical-align:top;">menu</td><td style="vertical-align:top;">:</td><td><div><table></table></div></td></tr><tr><td style="font-weight:bold;vertical-align:top;">meta</td><td style="vertical-align:top;">:</td><td><div><table></table></div></td></tr><tr><td style="font-weight:bold;vertical-align:top;">models_to_run</td><td style="vertical-align:top;">:</td><td><div><table><tr><td><div>^\\w+\\.py$</div></td></tr><tr><td><div>^inventory/\\w+\\.py$</div></td></tr><tr><td><div>^inventory/item/\\w+\\.py$</div></td></tr></table></div></td></tr><tr><td style="font-weight:bold;vertical-align:top;">postprocessing</td><td style="vertical-align:top;">:</td><td><div><table></table></div></td></tr><tr><td style="font-weight:bold;vertical-align:top;">session_client</td><td style="vertical-align:top;">:</td><td><div>127.0.0.1</div></td></tr><tr><td style="font-weight:bold;vertical-align:top;">session_cookie_compression_level</td><td style="vertical-align:top;">:</td><td><div>None</div></td></tr><tr><td style="font-weight:bold;vertical-align:top;">session_cookie_expires</td><td style="vertical-align:top;">:</td><td><div>None</div></td></tr><tr><td style="font-weight:bold;vertical-align:top;">session_data_name</td><td style="vertical-align:top;">:</td><td><div>session_data_chemwastepro</div></td></tr><tr><td style="font-weight:bold;vertical-align:top;">session_file</td><td style="vertical-align:top;">:</td><td><div>None</div></td></tr><tr><td style="font-weight:bold;vertical-align:top;">session_filename</td><td style="vertical-align:top;">:</td><td><div>/Users/byoung/Desktop/web2py/web2py.app/Contents/Resources/applications/chemwastepro/sessions/127.0.0.1-eff1af5b-a6c3-499c-9114-db3a8551220a</div></td></tr><tr><td style="font-weight:bold;vertical-align:top;">session_hash</td><td style="vertical-align:top;">:</td><td><div>c0762cbf4baf7f9af97c051e7fcb8083</div></td></tr><tr><td style="font-weight:bold;vertical-align:top;">session_id</td><td style="vertical-align:top;">:</td><td><div>127.0.0.1-eff1af5b-a6c3-499c-9114-db3a8551220a</div></td></tr><tr><td style="font-weight:bold;vertical-align:top;">session_id_name</td><td style="vertical-align:top;">:</td><td><div>session_id_chemwastepro</div></td></tr><tr><td style="font-weight:bold;vertical-align:top;">session_masterapp</td><td style="vertical-align:top;">:</td><td><div>chemwastepro</div></td></tr><tr><td style="font-weight:bold;vertical-align:top;">session_new</td><td style="vertical-align:top;">:</td><td><div>True</div></td></tr><tr><td style="font-weight:bold;vertical-align:top;">session_storage_type</td><td style="vertical-align:top;">:</td><td><div>file</div></td></tr><tr><td style="font-weight:bold;vertical-align:top;">status</td><td style="vertical-align:top;">:</td><td><div>200</div></td></tr><tr><td style="font-weight:bold;vertical-align:top;">view</td><td style="vertical-align:top;">:</td><td><div>inventory/item.html</div></td></tr></table></div>'
tRp107
sS'locals'
p108
(dp109
S'Service'
p110
S"<class 'gluon.tools.Service'>"
p111
sS'OBJECT'
p112
S"<class 'gluon.html.OBJECT'>"
p113
sS'SQLDB'
p114
S"<class 'pydal.base.DAL'>"
p115
sg100
S'<Storage {}>'
p116
sS'LINK'
p117
S"<class 'gluon.html.LINK'>"
p118
sS'BR'
p119
S"<class 'gluon.html.BR'>"
p120
sS'local_import'
p121
S'<function <lambda>>'
p122
sS'OPTGROUP'
p123
S"<class 'gluon.html.OPTGROUP'>"
p124
sS'topactionbutton4'
p125
S"''"
p126
sS'LI'
p127
S"<class 'gluon.html.LI'>"
p128
sS'topactionbutton1'
p129
S"''"
p130
sS'topactionbutton3'
p131
S"''"
p132
sS'topactionbutton2'
p133
S"''"
p134
sS'PRE'
p135
S"<class 'gluon.html.PRE'>"
p136
sS'IS_INT_IN_RANGE'
p137
S"<class 'gluon.validators.IS_INT_IN_RANGE'>"
p138
sS'IS_LOWER'
p139
S"<class 'gluon.validators.IS_LOWER'>"
p140
sS'IS_STRONG'
p141
S"<class 'gluon.validators.IS_STRONG'>"
p142
sS'cache'
p143
S'<gluon.cache.Cache object>'
p144
sS'IS_IN_DB'
p145
S"<class 'gluon.validators.IS_IN_DB'>"
p146
sS'TAG'
p147
S'<gluon.html.__TAG__ object>'
p148
sS'SQLField'
p149
S"<class 'pydal.objects.Field'>"
p150
sS'BODY'
p151
S"<class 'gluon.html.BODY'>"
p152
sS'IS_DATE_IN_RANGE'
p153
S"<class 'gluon.validators.IS_DATE_IN_RANGE'>"
p154
sS'TH'
p155
S"<class 'gluon.html.TH'>"
p156
sS'URL'
p157
S'<function URL>'
p158
sS'__file__'
p159
S"'/Users/byoung/Desktop/web2py/web2py.app/Contents/Resources/applications/chemwastepro/models/db.py'"
p160
sS'db'
p161
S'<DAL uri="mysql:******@localhost/chemwastepro">'
p162
sS'auth'
p163
S'<gluon.tools.Auth object>'
p164
sS'P'
S"<class 'gluon.html.P'>"
p165
sS'TFOOT'
p166
S"<class 'gluon.html.TFOOT'>"
p167
sS'XHTML'
p168
S"<class 'gluon.html.XHTML'>"
p169
sS'ON'
p170
S'True'
p171
sS'OL'
p172
S"<class 'gluon.html.OL'>"
p173
sS'TEXTAREA'
p174
S"<class 'gluon.html.TEXTAREA'>"
p175
sS'MENU'
p176
S"<class 'gluon.html.MENU'>"
p177
sS'PageHeader'
p178
S"''"
p179
sS'LOAD'
p180
S'<function LOAD>'
p181
sS'CODE'
p182
S"<class 'gluon.html.CODE'>"
p183
sS'HTTP'
p184
S"<class 'gluon.http.HTTP'>"
p185
sS'HR'
p186
S"<class 'gluon.html.HR'>"
p187
sS'IS_DATETIME'
p188
S"<class 'gluon.validators.IS_DATETIME'>"
p189
sS'HEAD'
p190
S"<class 'gluon.html.HEAD'>"
p191
sS'LABEL'
p192
S"<class 'gluon.html.LABEL'>"
p193
sS'META'
p194
S"<class 'gluon.html.META'>"
p195
sS'plugins'
p196
S'<gluon.tools.PluginManager object>'
p197
sS'SELECT'
p198
S"<class 'gluon.html.SELECT'>"
p199
sS'CENTER'
p200
S"<class 'gluon.html.CENTER'>"
p201
sS'Auth'
p202
S"<class 'gluon.tools.Auth'>"
p203
sS'current'
p204
S'<thread._local object>'
p205
sS'__builtins__'
p206
S"{'ArithmeticError': <type 'exceptions.ArithmeticError'>, 'AssertionError': <type 'exceptions.AssertionError'>, 'AttributeError': <type 'exceptions.AttributeError'>, 'BaseException': <type 'exceptions.BaseException'>, 'BufferError': <type 'exceptions.BufferError'>, 'BytesWarning': <type 'exceptions.BytesWarning'>, 'DeprecationWarning': <type 'exceptions.DeprecationWarning'>, 'EOFError': <type 'exceptions.EOFError'>, 'Ellipsis': Ellipsis, 'EnvironmentError': <type 'exceptions.EnvironmentError'>, ...}"
p207
sS'BEAUTIFY'
p208
S"<class 'gluon.html.BEAUTIFY'>"
p209
sS'SQLFORM'
p210
S"<class 'gluon.sqlhtml.SQLFORM'>"
p211
sS'EM'
p212
S"<class 'gluon.html.EM'>"
p213
sS'redirect'
p214
S'<function redirect>'
p215
sS'FIELDSET'
p216
S"<class 'gluon.html.FIELDSET'>"
p217
sS'IS_EQUAL_TO'
p218
S"<class 'gluon.validators.IS_EQUAL_TO'>"
p219
sS'connectionstring'
p220
S"'mysql://root:aQUWl!V,/9al@localhost/chemwastepro'"
p221
sS'embed64'
p222
S'<function embed64>'
p223
sS'IS_LIST_OF'
p224
S"<class 'gluon.validators.IS_LIST_OF'>"
p225
sS'__name__'
p226
S"'__restricted__'"
p227
sS'EMBED'
p228
S"<class 'gluon.html.EMBED'>"
p229
sS'FORM'
p230
S"<class 'gluon.html.FORM'>"
p231
sS'myconf'
p232
S"{'forms': {'formstyle': 'bootstrap3_inline', 'se...'you@gmail.com', 'server': 'smtp.gmail.com:587'}}"
p233
sS'H2'
p234
S"<class 'gluon.html.H2'>"
p235
sS'H3'
p236
S"<class 'gluon.html.H3'>"
p237
sS'AppConfig'
p238
S'<function AppConfig>'
p239
sS'H1'
p240
S"<class 'gluon.html.H1'>"
p241
sS'H6'
p242
S"<class 'gluon.html.H6'>"
p243
sS'H4'
p244
S"<class 'gluon.html.H4'>"
p245
sS'H5'
p246
S"<class 'gluon.html.H5'>"
p247
sS'UL'
p248
S"<class 'gluon.html.UL'>"
p249
sS'IS_UPPER'
p250
S"<class 'gluon.validators.IS_UPPER'>"
p251
sS'IS_LIST_OF_EMAILS'
p252
S"<class 'gluon.validators.IS_LIST_OF_EMAILS'>"
p253
sS'xmlescape'
p254
S'<function xmlescape>'
p255
sS'IS_TIME'
p256
S"<class 'gluon.validators.IS_TIME'>"
p257
sS'OPTION'
p258
S"<class 'gluon.html.OPTION'>"
p259
sS'TITLE'
p260
S"<class 'gluon.html.TITLE'>"
p261
sS'CRYPT'
p262
S"<class 'gluon.validators.CRYPT'>"
p263
sS'IS_EMPTY_OR'
p264
S"<class 'gluon.validators.IS_EMPTY_OR'>"
p265
sS'MARKMIN'
p266
S"<class 'gluon.html.MARKMIN'>"
p267
sS'INPUT'
p268
S"<class 'gluon.html.INPUT'>"
p269
sS'STRONG'
p270
S"<class 'gluon.html.STRONG'>"
p271
sS'COL'
p272
S"<class 'gluon.html.COL'>"
p273
sS'service'
p274
S'<gluon.tools.Service object>'
p275
sS'SCRIPT'
p276
S"<class 'gluon.html.SCRIPT'>"
p277
sS'TABLE'
p278
S"<class 'gluon.html.TABLE'>"
p279
sS'IS_IPV4'
p280
S"<class 'gluon.validators.IS_IPV4'>"
p281
sS'IS_LENGTH'
p282
S"<class 'gluon.validators.IS_LENGTH'>"
p283
sS'IS_IPV6'
p284
S"<class 'gluon.validators.IS_IPV6'>"
p285
sS'XML'
p286
S"<class 'gluon.html.XML'>"
p287
sS'B'
S"<class 'gluon.html.B'>"
p288
sS'IMG'
p289
S"<class 'gluon.html.IMG'>"
p290
sS'SQLTABLE'
p291
S"<class 'gluon.sqlhtml.SQLTABLE'>"
p292
sS'IS_MATCH'
p293
S"<class 'gluon.validators.IS_MATCH'>"
p294
sS'IS_ALPHANUMERIC'
p295
S"<class 'gluon.validators.IS_ALPHANUMERIC'>"
p296
sS'SPAN'
p297
S"<class 'gluon.html.SPAN'>"
p298
sS'IS_JSON'
p299
S"<class 'gluon.validators.IS_JSON'>"
p300
sS'IS_IPADDRESS'
p301
S"<class 'gluon.validators.IS_IPADDRESS'>"
p302
sS'IS_SLUG'
p303
S"<class 'gluon.validators.IS_SLUG'>"
p304
sS'CLEANUP'
p305
S"<class 'gluon.validators.CLEANUP'>"
p306
sS'BUTTON'
p307
S"<class 'gluon.html.BUTTON'>"
p308
sS'IS_DATE'
p309
S"<class 'gluon.validators.IS_DATE'>"
p310
sS'IS_EMAIL'
p311
S"<class 'gluon.validators.IS_EMAIL'>"
p312
sS'IS_NOT_EMPTY'
p313
S"<class 'gluon.validators.IS_NOT_EMPTY'>"
p314
sS'IS_FLOAT_IN_RANGE'
p315
S"<class 'gluon.validators.IS_FLOAT_IN_RANGE'>"
p316
sS'TBODY'
p317
S"<class 'gluon.html.TBODY'>"
p318
sS'CAT'
p319
S"<class 'gluon.html.CAT'>"
p320
sS'Field'
p321
S"<class 'pydal.objects.Field'>"
p322
sg62
S"<closed file 'chemwasteproconnectionstring.txt', mode 'r'>"
p323
sS'DIV'
p324
S"<class 'gluon.html.DIV'>"
p325
sS'LEGEND'
p326
S"<class 'gluon.html.LEGEND'>"
p327
sS'COLGROUP'
p328
S"<class 'gluon.html.COLGROUP'>"
p329
sS'DAL'
p330
S"<class 'pydal.base.DAL'>"
p331
sS'ASSIGNJS'
p332
S'<function ASSIGNJS>'
p333
sS'TR'
p334
S"<class 'gluon.html.TR'>"
p335
sS'__package__'
p336
S'None'
p337
sS'IFRAME'
p338
S"<class 'gluon.html.IFRAME'>"
p339
sS'TD'
p340
S"<class 'gluon.html.TD'>"
p341
sS'PluginManager'
p342
S"<class 'gluon.tools.PluginManager'>"
p343
sS'IS_URL'
p344
S"<class 'gluon.validators.IS_URL'>"
p345
sS'A'
S"<class 'gluon.html.A'>"
p346
sS'STYLE'
p347
S"<class 'gluon.html.STYLE'>"
p348
sS'IS_DATETIME_IN_RANGE'
p349
S"<class 'gluon.validators.IS_DATETIME_IN_RANGE'>"
p350
sS'HTML'
p351
S"<class 'gluon.html.HTML'>"
p352
sS'IS_IMAGE'
p353
S"<class 'gluon.validators.IS_IMAGE'>"
p354
sS'I'
S"<class 'gluon.html.I'>"
p355
sS'enterbutton'
p356
S"''"
p357
sS'cancelbutton'
p358
S"''"
p359
sS'IS_NOT_IN_DB'
p360
S"<class 'gluon.validators.IS_NOT_IN_DB'>"
p361
sg106
S"<Storage {'body': <cStringIO.StringO object at 0... at 0x10d8d58c0>, 'view': 'inventory/item.html'}>"
p362
sS'THEAD'
p363
S"<class 'gluon.html.THEAD'>"
p364
sS'ANY_OF'
p365
S"<class 'gluon.validators.ANY_OF'>"
p366
sS'IS_NULL_OR'
p367
S"<class 'gluon.validators.IS_EMPTY_OR'>"
p368
sg56
S"<Storage {'_vars': None, 'function': 'item', 'co.../Contents/Resources/applications/chemwastepro/'}>"
p369
sS'IS_EXPR'
p370
S"<class 'gluon.validators.IS_EXPR'>"
p371
sS'IS_IN_SET'
p372
S"<class 'gluon.validators.IS_IN_SET'>"
p373
sS'IS_UPLOAD_FILENAME'
p374
S"<class 'gluon.validators.IS_UPLOAD_FILENAME'>"
p375
sS'IS_DECIMAL_IN_RANGE'
p376
S"<class 'gluon.validators.IS_DECIMAL_IN_RANGE'>"
p377
sS'TT'
p378
S"<class 'gluon.html.TT'>"
p379
sS'T'
S'<gluon.languages.translator object>'
p380
sssS'traceback'
p381
S'Traceback (most recent call last):\n  File "/Users/byoung/Desktop/web2py/web2py.app/Contents/Resources/gluon/restricted.py", line 227, in restricted\n  File "/Users/byoung/Desktop/web2py/web2py.app/Contents/Resources/applications/chemwastepro/models/db.py", line 269, in <module>\nAttributeError: \'Table\' object has no attribute \'cabinet\'\n'
p382
s.