(dp1
S'output'
p2
S"<type 'exceptions.SyntaxError'> invalid syntax (db.py, line 247)"
p3
sS'layer'
p4
S'/Users/byoung/Desktop/web2py/web2py.app/Contents/Resources/applications/chemwastepro/models/db.py'
p5
sS'code'
p6
S'# -*- coding: utf-8 -*-\n\n#########################################################################\n## This scaffolding model makes your app work on Google App Engine too\n## File is released under public domain and you can use without limitations\n#########################################################################\n\n## if SSL/HTTPS is properly configured and you want all HTTP requests to\n## be redirected to HTTPS, uncomment the line below:\n# request.requires_https()\n\n## app configuration made easy. Look inside private/appconfig.ini\nfrom gluon.contrib.appconfig import AppConfig\n## once in production, remove reload=True to gain full speed\nmyconf = AppConfig(reload=True)\n#Put a file in the root level of web2py, alongside the applications folder, with the connection string\n#example connection string = mysql://db_user:Password!@localhost/chemwastepro\nfile = open(\'chemwasteproconnectionstring.txt\', \'r\')\nconnectionstring = file.readline().rstrip(\'\\n\') #strip newline just in case\nfile.close()\nif not request.env.web2py_runtime_gae:\n    ## if NOT running on Google App Engine use SQLite or other DB\n    #db = DAL(myconf.take(\'db.uri\'), pool_size=myconf.take(\'db.pool_size\', cast=int), check_reserved=[\'all\'])\n    db = DAL(connectionstring,migrate=False,lazy_tables=True)\nelse:\n    ## connect to Google BigTable (optional \'google:datastore://namespace\')\n    db = DAL(\'google:datastore+ndb\')\n    ## store sessions and tickets there\n    session.connect(request, response, db=db)\n    ## or store session in Memcache, Redis, etc.\n    ## from gluon.contrib.memdb import MEMDB\n    ## from google.appengine.api.memcache import Client\n    ## session.connect(request, response, db = MEMDB(Client()))\n    \n#add the db object to the current thread local object, which can then be imported and accessed within the modules\nfrom gluon import current\ncurrent.db = db\n## by default give a view/generic.extension to all actions from localhost\n## none otherwise. a pattern can be \'controller/function.extension\'\nresponse.generic_patterns = [\'*\'] if request.is_local else []\n## choose a style for forms\nresponse.formstyle = myconf.take(\'forms.formstyle\')  # or \'bootstrap3_stacked\' or \'bootstrap2\' or other\nresponse.form_label_separator = myconf.take(\'forms.separator\')\n\n\n#Security stuff. Make sure your web server is set to HTTPS only.\nresponse.headers[\'X-Frame-Options\'] = "SAMEORIGIN"\nresponse.headers[\'Content-Security-Policy\'] = "frame-ancestors \'self\'"\n#session._secure=True # Sets cookies to "HTTPOnly; Secure" # this only works if the site is HTTPS\n#response.headers[\'Strict-Transport-Security\'] = "max-age=31536000" # this only works if the site is HTTPS\n\n\n## (optional) optimize handling of static files\n# response.optimize_css = \'concat,minify,inline\'\n# response.optimize_js = \'concat,minify,inline\'\n## (optional) static assets folder versioning\n# response.static_version = \'0.0.0\'\n#########################################################################\n## Here is sample code if you need for\n## - email capabilities\n## - authentication (registration, login, logout, ... )\n## - authorization (role based authorization)\n## - services (xml, csv, json, xmlrpc, jsonrpc, amf, rss)\n## - old style crud actions\n## (more options discussed in gluon/tools.py)\n#########################################################################\n\nfrom gluon.tools import Auth, Service, PluginManager\n\nauth = Auth(db)\nservice = Service()\nplugins = PluginManager()\n\n## create all tables needed by auth if not custom tables\n#auth.define_tables(username=False, signature=False)\n\n## configure emails\n#mail = auth.settings.mailer\n#mail.settings.server = \'logging\' if request.is_local else myconf.take(\'smtp.server\')\n#mail.settings.sender = myconf.take(\'smtp.sender\')\n#mail.settings.login = myconf.take(\'smtp.login\')\n\n## configure auth policy\nauth.settings.registration_requires_verification = False\nauth.settings.registration_requires_approval = False\nauth.settings.reset_password_requires_verification = True\n\n##Define some globals\nPageHeader = ""\ntopactionbutton1 = ""\ntopactionbutton2 = ""\ntopactionbutton3 = ""\ntopactionbutton4 = ""\nenterbutton = cancelbutton = \'\'\n\n\n#########################################################################\n## Define your tables below (or better in another model file) for example\n##\n## >>> db.define_table(\'mytable\',Field(\'myfield\',\'string\'))\n##\n## Fields can be \'string\',\'text\',\'password\',\'integer\',\'double\',\'boolean\'\n##       \'date\',\'time\',\'datetime\',\'blob\',\'upload\', \'reference TABLENAME\'\n## There is an implicit \'id integer autoincrement\' field\n## Consult manual for more options, validators, etc.\n##\n## More API examples for controllers:\n##\n## >>> db.mytable.insert(myfield=\'value\')\n## >>> rows=db(db.mytable.myfield==\'value\').select(db.mytable.ALL)\n## >>> for row in rows: print row.id, row.myfield\n#########################################################################\n\n## after defining tables, uncomment below to enable auditing\n# auth.enable_record_versioning(db)\n\n## This database structure uses "list:reference" which is a means to de-normalize many to many tables.\n#http://web2py.com/books/default/chapter/29/6#list--type--and-contains\n#This makes the database structure simpler by avoiding junction tables\n#web2py the "list:reference" is a string with bar delimiters between the record id, example "|1|2|"\n\n    #Multi-select code\n    #http://www.web2pyslices.com/slice/show/1395/jquery-multi-select-widget\n\n# Naming Scheme\n# use prefix "c" for child tables, like units.\n\n\ndb.define_table(\'state\', # NOT USED?\n                Field(\'name\',\'string\'),\n                format=\'%(name)s\'\n               )\ndb.define_table(\'receptacle\',\n                Field(\'name\',\'string\'),\n                format=\'%(name)s\'\n               )\ndb.define_table(\'units\',\n                Field(\'name\',\'string\'),\n                format=\'%(name)s\'\n               )\n\n#\'condition\' is a reserved word in SQL, so we use \'condition_\' per the Python style guide\ndb.define_table(\'condition_\',\n                Field(\'name\',\'string\'),\n                format=\'%(name)s\'\n               )\n#Conversions are needed to match shipping requirements. For example, asbestos may be collected as pounds, but shipped as yards\n#Also, billing may be based on a fixed unit, like gallons\ndb.define_table(\'conversions\',\n                Field(\'unitsfrom\', \'reference units\'),\n                Field(\'conversionfactor\', \'decimal(65,10)\'),\n                format=\'%(name)s\'\n               )\n#The TSDF and Treatment codes purpose are twofold.\n# First to segregate chemicals for storage, lab packing and shipping\n# Second to use the codes to complete the Federal Regulation Biennial Report (also known as the Hazardous Waste Report)\n#TSDF = Hazardous Waste Treatment, Storage, and Disposal Facility\ndb.define_table(\'tsdf\',\n                Field(\'tsdfname\',\'string\'),\n                Field(\'tsdfnumber\',\'string\'),\n\n                format=\'%(tsdfname)s\'\n                )\n#Treatment codes come from http://www3.epa.gov/epawaste/hazard/transportation/manifest/pdf/codes.pdf\ndb.define_table(\'treatment\',\n                Field(\'treatmentname\',\'string\'),\n                #Hazardous Waste Report TreatmentCode\n                Field(\'treatmentcode\',\'string\',length=\'4\'),\n                Field(\'treatnameabbrev\',\'string\',length=\'10\'),\n                format=\'%(treatnameabbrev)s\'\n                )\ndb.define_table(\'hazard\',\n                Field(\'hazardname\',\'string\'),\n                Field(\'hazard_order\',\'integer\'),\n                Field(\'hazardabbrev\',\'string\'),\n                format=\'%(hazardname)s\'\n                )\ndb.define_table(\'fedwastecode\',\n                Field(\'code\',\'string\',length=\'4\'),\n                Field(\'wastedescription\',\'string\'),\n                format=\'%(code)s%(wastedescription)s\'\n               )\ndb.define_table(\'unna\',\n                Field(\'name\',type=\'string\'),\n                Field(\'unna\',type=\'string\'),\n                )\nimport cwp_functions\ndb.define_table(\'chemindex\',\n                Field(\'id\',\'id\'),\n                Field(\'chemname\',\'string\'),\n                #Field(\'chemname\',\'string\', requires=IS_NOT_EMPTY())\n                #Field(\'prefix\',\'string\'),\n                #Field(\'cmidfix\',\'string\'),\n                #Field(\'csuffix\',\'string\'),\n                Field(\'casnum\',\'string\'),\n                Field(\'state\',\'string\'),\n                Field(\'group_\',\'string\'), #MYSQL reserved word, trailing underscore\n                # The disposal code uses a nested lambda\n                # the first lamda using record r computes the value for the field\n                #the second lambda using v joins the values from the chazard field which contains a list\n                #iterating with lambda\n                #[v * 5 for v in x]\n                #is the same as\n                #y = map(lambda v : v+\'-\', x) - which is a dash separated list\n                #use join to concatenate the list using a comma\n                #\',\'.join(lst)\n                #So just the hazard part of the disposal code is compute=lambda r: \',\'.join(map(lambda v : db.hazard[v].hazardabbrev , r[\'chazard\'])))\n                \n                #DONT USE - Try to compute Disposal Code dynmaically in every case\n                #Field(\'disposalcode\',compute=lambda r: cwp_functions.returndisposalcode(r[\'id\'])),\n                Field(\'disposalcode\'),\n                Field(\'hazard\',compute=lambda r: cwp_functions.returnhazardlistabbrev(r[\'id\'])),\n                Field(\'tsdf\',\'reference tsdf\'),\n                Field(\'treatment\',\'reference treatment\'),\n                #Field(\'hazwastecodes\',compute=lambda r: \',\'.join(map(lambda v : db.fedwastecode[v].code , r[\'fedwastecode\']))),\n                Field(\'hazwastecodes\'),\n                #list:reference is a way to introduce many to many relationship without using join table\n                #list can be reordered. For example, 1=Flammable, 2 = Corrosive\n                #list is ordered on creation\n                #[\'1\',\'2\'] list can be reordered to reflect Corrosive,Flammable = [\'2\',\'1\']\n                #Field(\'hazard\',\'list:string\', requires = IS_EMPTY_OR(IS_IN_DB(db,\'hazard.id\', db.hazard._format,multiple=True))),\n                #State Hazardous Waste Codes - http://www3.epa.gov/epawaste/inforesources/data/br13/br13-specification.pdf\n                Field(\'fedwastecode\',\'list:string\', requires = IS_EMPTY_OR(IS_IN_DB(db,\'fedwastecode.id\', db.fedwastecode._format,multiple=True))), #like D001, D002\n                Field(\'dotpsn\',\'boolean\'), #Department of Transportation Proper Shipping Name - if checked, do not edit name\n                Field(\'packtype\',\'string\', default=\'\'),\n                Field(\'comments\',\'text\'),\n                Field(\'components\',\'text\'),# similar to mixture\n                Field(\'unna\',\'reference unna\'),# United Nations/United State List of Hazardous Materials\n                Field(\'pg\',\'string\'), #Packing Group\n                #Field(\'hazardlistabbrev\', compute=lambda r: str(r[\'disposalcode\']) ),\n                \n                \n                format=\'%(chemname)s\',\n               )\n\ndb.chemindex.packtype.requires=IS_EMPTY_OR(IS_IN_SET((\'\',\'LP\',\'BU\')))\ndb.chemindex.tsdf.requires = IS_EMPTY_OR(IS_IN_DB(db,\'tsdf.id\',\'%(tsdfname)s\'))\ndb.chemindex.treatment.requires = IS_EMPTY_OR(IS_IN_DB(db,\'treatment.id\',\'%(treatnameabbrev)s\'))\ndb.chemindex.group_.requires=IS_EMPTY_OR(IS_IN_SET((\'Inorganic\',\'Organic\'))) # IN = Inorganic, OR = Organic\ndb.chemindex.state.requires=IS_EMPTY_OR(IS_IN_SET((\'Solid\',\'Liquid\',\'Gas\')))\ndb.chemindex.unna.requires = IS_EMPTY_OR(IS_IN_DB(db,\'unna.id\',\'%(unna)s\'))\ndb.chemindex.editlink = Field.Virtual(\'editlink\', lambda row: """<a href="""+URL(\'inventory\',\'chemindexedit\')+"""/"""+str(row.chemindex.id)+"""><div class="col-md-3 col-sm-4"><i class="fa fa-fw fa-edit"></i></div></a>""")\n\nclass ciVirtualFields(object):\n        def hazardlistabbrev(self):\n            return self.treatment\n>>> db.chemindex.virtualfields.append(ciVirtualFields())\n\n\n#db.item.total_price =         Field.Virtual(\'total_price\',lambda row: row.item.unit_price * row.item.quantity)\n\n\n#Reference http://blog.jotbe-fx.de/articles/2522/web2py-Normalized-many-to-many-model-with-multiselect-drop-down\ndb.define_table(\'chemindex_hazard_association\',\n                Field(\'chemindex_id\', \'reference chemindex\'),\n                Field(\'hazard_id\', \'reference hazard\'),\n                Field(\'hazard_order\', \'integer\'),\n               )\n\n#db.chemindex.hazards_st = Field.Method(lambda id,row:db(db.chemindex_hazard_association.chemindex_id == row.id).select().first().hazard_id)\n\ndb.define_table(\'psn\', # Proper Shipping Name\n                Field(\'propershippingname\',type=\'string\',\n                      required=True),\n                format=\'%(propershippingname)s\'\n               )\n\n#Physical hazardous waste storage cabinets\n#TODO - should also segregate by Inorganic / Organic\n#Cannot use just Hazard\ndb.define_table(\'cabinet\',\n                Field(\'name\',\'string\'),\n                Field(\'cabinetcode\',\'reference hazard\'),\n                Field(\'group_\',\'string\'), #MYSQL reserved word, trailing underscore\n                )\n# ALLOW EMPTY??? Or require cabinet group\ndb.cabinet.group_.requires=IS_EMPTY_OR(IS_IN_SET((\'Inorganic\',\'Organic\'))) # IN = Inorganic, OR = Organic\n\n#Physical shelves or tubs inside the cabinets\ndb.define_table(\'shelf\',\n                Field(\'shelfcode\',\'string\',default=""),\n                Field(\'disposalcode\',\'string\'),\n                Field(\'scabinet\',\'reference cabinet\'),\n                format=\'%(shelfcode)s\'\n               )\ndb.shelf.scabinet.requires = IS_IN_DB(db,\'cabinet.id\',\'%(name)s\')#make drop down list of cabinets\n\n#drum, pallet, bin\ndb.define_table(\'shipment\',\n                Field(\'manifest\',type=\'string\',\n                      required=True),\n                format=\'%(manifest)s\'\n               )\ndb.define_table(\'containertype\',\n                Field(\'containertypecode\',type=\'string\',required=True),\n                Field(\'name\',type=\'string\'),\n                format=\'%(containertypecode)s - %(name)s\'\n               )\n\n# If you have more than one EPA ID number site shipping Hazardous Waste Manifests\ndb.define_table(\'generator\',\n                Field(\'name\',type=\'string\'),\n                Field(\'epaid\',type=\'string\'), #Environmental Protection Agency Identification Number\n                Field(\'address\',type=\'string\'),\n                )\n\ndb.define_table(\'container\',\n                Field(\'contnum\',\'string\',default="1000"),#an alphanumeric identifier for container. Regulations say drum number must be unique per shipment\n                Field(\'psn\',\'reference psn\'), #PSN= Proper Shipping Name\n                Field(\'opendate\',\'date\'),\n                Field(\'closedate\',\'date\'),\n                Field(\'accumulationstartdate\',\'date\'),\n                Field(\'chemweight\',\'decimal(65,2)\'),\n                Field(\'grossweight\',\'decimal(65,2)\'),\n                Field(\'disposalcode\',\'string\'),\n                Field(\'profile\',\'string\'), #Waste profile from TSDF\n                Field(\'tsdf\',\'reference tsdf\'),\n                Field(\'containertype\',\'reference containertype\'), # from regulations\n                Field(\'containersize\',\'string\'), #standard measurement, example 55Gal drum\n                Field(\'containervolume\',\'integer\'),\n                Field(\'containerstyle\',\'string\'),\n                Field(\'containerconstruction\',\'string\'),\n                Field(\'closedby\',\'string\'),\n                Field(\'statewastecode\',\'string\'),#california waste code\n                Field(\'fedwastecode\',\'list:string\', requires = IS_IN_DB(db,\'fedwastecode.id\', db.fedwastecode._format,multiple=True)), #like D001, D002\n                Field(\'shipment\',\'reference shipment\'),\n                Field(\'generator\',\'reference generator\'),\n                Field(\'contentscomposition\',\'string\'),\n                Field(\'cstate\',\'string\'),\n                Field(\'rq\',\'boolean\'), # Reportable Quantity\n                Field(\'unna\',\'reference unna\'),\n                Field(\'descriptor\',\'string\'),\n                Field(\'technicalname\',\'string\'),\n                Field(\'hazdivision\',\'string\',requires = IS_EMPTY_OR(IS_IN_SET((\'1.1\',\'1.2\',\'1.3\',\'1.4\',\'1.5\',\'1.6\',\'2.1\',\'2.2\',\'2.3\',\'3\',\'4.1\',\'4.2\',\'4.3\',\'5\',\'5.1\',\'6.1\',\'6.2\',\'7\',\'8\',\'9\',\'NON-RCRA\')))),\n                Field(\'pggroup\',\'string\',requires = IS_EMPTY_OR(IS_IN_SET((\'FORBDN\',\'PG I\',\'PG I-II\',\'PG I-III\',\'PG II\',\'PG II-III\',\'PG III\')))), # packing group\n                Field(\'psndescriptor\',\'string\'),\n                Field(\'hazardousproperties\',\'list:string\', requires = IS_IN_DB(db,\'hazard.id\', db.hazard._format,multiple=True)),\n                format=\'%(contnum)s\'\n               )\ndb.container.tsdf.requires = IS_EMPTY_OR(IS_IN_DB(db,\'tsdf.id\',\'%(tsdfname)s\'))\ndb.container.containerstyle.requires=IS_EMPTY_OR(IS_IN_SET((\'Bin\',\'Box\',\'Pail\',\'Drum\',\'End Dump\',\'Pallet\',\'Salvage\',\'Tank Truck\',\'Cylinder\')))    \ndb.container.containersize.requires=IS_EMPTY_OR(IS_IN_SET((\'\',\'05G\',\'08G\',\'10G\',\'12G\',\'15G\')))\ndb.container.containerconstruction.requires=IS_EMPTY_OR(IS_IN_SET((\'NA\',\'Plastic\',\'Wood\',\'Metal\',\'Fiber\')))\ndb.container.containertype.requires = IS_EMPTY_OR(IS_IN_DB(db,\'containertype.id\',\'%(name)s\')), #allow Containertype to be empty\ndb.container.containertype.widget = SQLFORM.widgets.options.widget #make drop-down list    \ndb.container.psn.requires = IS_EMPTY_OR(IS_IN_DB(db,\'psn.id\',\'%(propershippingname)s\')), #allow PSN to be empty\ndb.container.psn.widget = SQLFORM.widgets.options.widget #make drop-down list    \ndb.container.generator.requires = IS_EMPTY_OR(IS_IN_DB(db,\'generator.id\',\'%(name)s\')), #allow container ID to be empty \ndb.container.generator.widget = SQLFORM.widgets.options.widget #make drop-down list    \ndb.container.cstate.requires=IS_EMPTY_OR(IS_IN_SET((\'Solid\',\'Liquid\'))),\ndb.container.cstate.widget = SQLFORM.widgets.options.widget #make drop-down list \ndb.container.unna.requires = IS_EMPTY_OR(IS_IN_DB(db,\'unna.id\',\'%(unna)s\')), #allow container ID to be empty \ndb.container.unna.widget = SQLFORM.widgets.options.widget #make drop-down list    \n\ndb.define_table(\'item\',\n                Field(\'name\',\'reference chemindex\',required=True),\n                Field(\'condition_\',\'reference condition_\'),#,widget=SQLFORM.widgets.options.widget,requires=[IS_IN_DB(db, db.condition_.name)]),\n                Field(\'state\',\'string\'),\n                Field(\'amount\',\'decimal(65,2)\'),\n                Field(\'units\', \'reference units\'),\n                Field(\'capacity\',\'integer\'),\n                Field(\'quantity\',\'integer\'),\n                Field(\'receptacle\', \'reference receptacle\'),\n                Field(\'pounds\',compute=lambda r: db.conversions(r[\'Iunits\']).unitsfrom),\n                Field(\'hazwastecodes\',\'string\',readable=False),\n                Field(\'components\',\'text\'),\n                Field(\'mixture\',\'text\'),\n                Field(\'comments\',\'text\'),\n                Field(\'input_id\',\'string\'),#a reference from the feeder system, example "From Dr. Bromer\'s lab"\n                Field(\'inputnumber\',\'integer\'),#a reference from the feeder system, example "12345" OR otp_waste_container_id\n                Field(\'shelf\', \'reference shelf\', default=0), #allow container ID to be empty\n                Field(\'container\', \'reference container\'),\n                format=\'%(name)s\'\n               )\ndb.item.state.requires=IS_IN_SET((\'Solid\',\'Liquid\',\'Gas\'))\ndb.item.name.requires = IS_EMPTY_OR(IS_IN_DB(db,\'chemindex.id\',\'%(chemname)s\'))\ndb.item.container.requires = IS_EMPTY_OR(IS_IN_DB(db,\'container.id\',\'%(id)s %(contnum)s\')), #allow container ID to be empty - Put ID and container key, in case container key is blank\ndb.item.container.widget = SQLFORM.widgets.options.widget #make drop-down list    \ndb.item.units.requires = IS_EMPTY_OR(IS_IN_DB(db,\'units.id\',\'%(name)s\')), #allow units to be empty\ndb.item.units.widget = SQLFORM.widgets.options.widget #make drop-down list\ndb.item.receptacle.requires = IS_EMPTY_OR(IS_IN_DB(db,\'receptacle.id\',\'%(name)s\')), #allow receptacle to be empty\ndb.item.receptacle.widget = SQLFORM.widgets.options.widget #make drop-down list\ndb.item.condition_.requires = IS_EMPTY_OR(IS_IN_DB(db,\'condition_.id\',\'%(name)s\')), #allow condition to be empty\ndb.item.condition_.widget = SQLFORM.widgets.options.widget #make drop-down list  \ndb.item.shelf.requires = IS_EMPTY_OR(IS_IN_DB(db,\'shelf.id\',\'%(shelfcode)s %(disposalcode)s\')), #allow condition to be empty\ndb.item.shelf.widget = SQLFORM.widgets.options.widget #make drop-down list         \n\n#for printing manifest to PDF \n#Each record is a form layout\ndb.define_table(\'manifest_layout\',\n                #Number elements rom 1000 to make room from change.\n                # Elements on first page start with 1000 + box number. Example: #1 Generator number = element 1001\n                #Elements on page 2 start with 2000\n                Field(\'type\',\'string\'),\n                Field(\'name\',\'string\'),\n                Field(\'element\',\'integer\'),\n                Field(\'x1\',\'double\'), # x and y are botton left corner\n                Field(\'y1\',\'double\'),\n                Field(\'x2\',\'double\'), # x and y are botton left corner\n                Field(\'y2\',\'double\'),\n                Field(\'font\',\'string\'),\n                Field(\'size\',\'double\'),\n                Field(\'bold\',\'integer\'),\n                Field(\'italic\',\'integer\'),\n                Field(\'underline\',\'integer\'),\n                Field(\'foreground\',\'integer\'),\n                Field(\'background\',\'integer\'),\n                Field(\'align\',\'string\'),\n                Field(\'priority\',\'integer\'),\n                Field(\'multiline\',\'integer\'),\n                )\n\n#FLAMMABLE LIQUIDS, N.O.S.\ndb.define_table(\'site\',\n                Field(\'sitename\',\'string\'),\n                #EPA Identification Number\n                Field(\'epaid\',\'string\'),\n                format=\'%(sitename)s\'\n               )\n\n\n## Fill empty tables\n#if db(db.person).isempty():\n    #db.chemindex.cname="Acetone"\n#for row in db(db.chemindex.id > 0).select():\n#    if (row.id % 2 == 0):\n#        row.update_record(treatment=1)\n#    else:\n#        row.update_record(treatment=2)\n'
p7
sS'snapshot'
p8
(dp9
S'exception'
p10
(dp11
S'__getslice__'
p12
S"<method-wrapper '__getslice__' of exceptions.SyntaxError object>"
p13
sS'text'
p14
S"'>>> db.chemindex.virtualfields.append(ciVirtualFields())\\n'"
p15
sS'__str__'
p16
S"<method-wrapper '__str__' of exceptions.SyntaxError object>"
p17
sS'__reduce__'
p18
S'<built-in method __reduce__ of exceptions.SyntaxError object>'
p19
sS'__dict__'
p20
S'{}'
p21
sS'__sizeof__'
p22
S'<built-in method __sizeof__ of exceptions.SyntaxError object>'
p23
sS'__init__'
p24
S"<method-wrapper '__init__' of exceptions.SyntaxError object>"
p25
sS'__setattr__'
p26
S"<method-wrapper '__setattr__' of exceptions.SyntaxError object>"
p27
sS'__reduce_ex__'
p28
S'<built-in method __reduce_ex__ of exceptions.SyntaxError object>'
p29
sS'__new__'
p30
S'<built-in method __new__ of type object>'
p31
sS'__format__'
p32
S'<built-in method __format__ of exceptions.SyntaxError object>'
p33
sS'__class__'
p34
S"<type 'exceptions.SyntaxError'>"
p35
sS'filename'
p36
S"'/Users/byoung/Desktop/web2py/web2py.app/Contents/Resources/applications/chemwastepro/models/db.py'"
p37
sS'lineno'
p38
S'247'
p39
sS'msg'
p40
S"'invalid syntax'"
p41
sS'__doc__'
p42
S"'Invalid syntax.'"
p43
sS'__getitem__'
p44
S"<method-wrapper '__getitem__' of exceptions.SyntaxError object>"
p45
sS'__setstate__'
p46
S'<built-in method __setstate__ of exceptions.SyntaxError object>'
p47
sS'__getattribute__'
p48
S"<method-wrapper '__getattribute__' of exceptions.SyntaxError object>"
p49
sS'print_file_and_line'
p50
S'None'
p51
sS'args'
p52
S"('invalid syntax', ('/Users/byoung/Desktop/web2py/web2py.app/Contents/Resources/applications/chemwastepro/models/db.py', 247, 2, '>>> db.chemindex.virtualfields.append(ciVirtualFields())\\n'))"
p53
sS'__subclasshook__'
p54
S'<built-in method __subclasshook__ of type object>'
p55
sS'offset'
p56
S'2'
sS'__unicode__'
p57
S'<built-in method __unicode__ of exceptions.SyntaxError object>'
p58
sS'__delattr__'
p59
S"<method-wrapper '__delattr__' of exceptions.SyntaxError object>"
p60
sS'__repr__'
p61
S"<method-wrapper '__repr__' of exceptions.SyntaxError object>"
p62
sS'__hash__'
p63
S"<method-wrapper '__hash__' of exceptions.SyntaxError object>"
p64
ssS'evalue'
p65
S'invalid syntax (db.py, line 247)'
p66
sS'request'
p67
cgluon.html
XML_unpickle
p68
(S's\xa9`\x00\x00<div><table><tr><td style="font-weight:bold;vertical-align:top;">ajax</td><td style="vertical-align:top;">:</td><td><div>True</div></td></tr><tr><td style="font-weight:bold;vertical-align:top;">application</td><td style="vertical-align:top;">:</td><td><div>chemwastepro</div></td></tr><tr><td style="font-weight:bold;vertical-align:top;">args</td><td style="vertical-align:top;">:</td><td><div><table></table></div></td></tr><tr><td style="font-weight:bold;vertical-align:top;">cid</td><td style="vertical-align:top;">:</td><td><div>c763959944112</div></td></tr><tr><td style="font-weight:bold;vertical-align:top;">client</td><td style="vertical-align:top;">:</td><td><div>127.0.0.1</div></td></tr><tr><td style="font-weight:bold;vertical-align:top;">controller</td><td style="vertical-align:top;">:</td><td><div>appadmin</div></td></tr><tr><td style="font-weight:bold;vertical-align:top;">cookies</td><td style="vertical-align:top;">:</td><td><div><table><tr><td style="font-weight:bold;vertical-align:top;">session_id_admin</td><td style="vertical-align:top;">:</td><td><div>127.0.0.1-978e3300-ef3c-4d4c-9389-11fa943f7b64<table><tr><td style="font-weight:bold;vertical-align:top;">comment</td><td style="vertical-align:top;">:</td><td><div></div></td></tr><tr><td style="font-weight:bold;vertical-align:top;">domain</td><td style="vertical-align:top;">:</td><td><div></div></td></tr><tr><td style="font-weight:bold;vertical-align:top;">expires</td><td style="vertical-align:top;">:</td><td><div></div></td></tr><tr><td style="font-weight:bold;vertical-align:top;">httponly</td><td style="vertical-align:top;">:</td><td><div></div></td></tr><tr><td style="font-weight:bold;vertical-align:top;">max-age</td><td style="vertical-align:top;">:</td><td><div></div></td></tr><tr><td style="font-weight:bold;vertical-align:top;">path</td><td style="vertical-align:top;">:</td><td><div></div></td></tr><tr><td style="font-weight:bold;vertical-align:top;">secure</td><td style="vertical-align:top;">:</td><td><div></div></td></tr><tr><td style="font-weight:bold;vertical-align:top;">version</td><td style="vertical-align:top;">:</td><td><div></div></td></tr></table></div></td></tr><tr><td style="font-weight:bold;vertical-align:top;">session_id_chemwastepro</td><td style="vertical-align:top;">:</td><td><div>127.0.0.1-01cbcd42-0920-4f73-befe-12de2ffe8d4b<table><tr><td style="font-weight:bold;vertical-align:top;">comment</td><td style="vertical-align:top;">:</td><td><div></div></td></tr><tr><td style="font-weight:bold;vertical-align:top;">domain</td><td style="vertical-align:top;">:</td><td><div></div></td></tr><tr><td style="font-weight:bold;vertical-align:top;">expires</td><td style="vertical-align:top;">:</td><td><div></div></td></tr><tr><td style="font-weight:bold;vertical-align:top;">httponly</td><td style="vertical-align:top;">:</td><td><div></div></td></tr><tr><td style="font-weight:bold;vertical-align:top;">max-age</td><td style="vertical-align:top;">:</td><td><div></div></td></tr><tr><td style="font-weight:bold;vertical-align:top;">path</td><td style="vertical-align:top;">:</td><td><div></div></td></tr><tr><td style="font-weight:bold;vertical-align:top;">secure</td><td style="vertical-align:top;">:</td><td><div></div></td></tr><tr><td style="font-weight:bold;vertical-align:top;">version</td><td style="vertical-align:top;">:</td><td><div></div></td></tr></table></div></td></tr><tr><td style="font-weight:bold;vertical-align:top;">session_id_welcome</td><td style="vertical-align:top;">:</td><td><div>127.0.0.1-ba5a0d1a-6fa2-4839-9620-ad6f1d18c5b3<table><tr><td style="font-weight:bold;vertical-align:top;">comment</td><td style="vertical-align:top;">:</td><td><div></div></td></tr><tr><td style="font-weight:bold;vertical-align:top;">domain</td><td style="vertical-align:top;">:</td><td><div></div></td></tr><tr><td style="font-weight:bold;vertical-align:top;">expires</td><td style="vertical-align:top;">:</td><td><div></div></td></tr><tr><td style="font-weight:bold;vertical-align:top;">httponly</td><td style="vertical-align:top;">:</td><td><div></div></td></tr><tr><td style="font-weight:bold;vertical-align:top;">max-age</td><td style="vertical-align:top;">:</td><td><div></div></td></tr><tr><td style="font-weight:bold;vertical-align:top;">path</td><td style="vertical-align:top;">:</td><td><div></div></td></tr><tr><td style="font-weight:bold;vertical-align:top;">secure</td><td style="vertical-align:top;">:</td><td><div></div></td></tr><tr><td style="font-weight:bold;vertical-align:top;">version</td><td style="vertical-align:top;">:</td><td><div></div></td></tr></table></div></td></tr></table></div></td></tr><tr><td style="font-weight:bold;vertical-align:top;">env</td><td style="vertical-align:top;">:</td><td><div><table><tr><td style="font-weight:bold;vertical-align:top;">HTTP_ACCEPT</td><td style="vertical-align:top;">:</td><td><div>*/*</div></td></tr><tr><td style="font-weight:bold;vertical-align:top;">HTTP_ACCEPT_ENCODING</td><td style="vertical-align:top;">:</td><td><div>gzip, deflate, sdch, br</div></td></tr><tr><td style="font-weight:bold;vertical-align:top;">HTTP_ACCEPT_LANGUAGE</td><td style="vertical-align:top;">:</td><td><div>en-US,en;q=0.8,ms;q=0.6</div></td></tr><tr><td style="font-weight:bold;vertical-align:top;">HTTP_CONNECTION</td><td style="vertical-align:top;">:</td><td><div>keep-alive</div></td></tr><tr><td style="font-weight:bold;vertical-align:top;">HTTP_COOKIE</td><td style="vertical-align:top;">:</td><td><div>session_id_welcome=127.0.0.1-ba5a0d1a-6fa2-4839-9620-ad6f1d18c5b3; session_id_chemwastepro=127.0.0.1-01cbcd42-0920-4f73-befe-12de2ffe8d4b; session_id_admin=127.0.0.1-978e3300-ef3c-4d4c-9389-11fa943f7b64</div></td></tr><tr><td style="font-weight:bold;vertical-align:top;">HTTP_HOST</td><td style="vertical-align:top;">:</td><td><div>127.0.0.1:8000</div></td></tr><tr><td style="font-weight:bold;vertical-align:top;">HTTP_REFERER</td><td style="vertical-align:top;">:</td><td><div>http://127.0.0.1:8000/admin/default/edit/chemwastepro/views/inventory/chemindex.html?id=views__inventory__chemindex__html</div></td></tr><tr><td style="font-weight:bold;vertical-align:top;">HTTP_USER_AGENT</td><td style="vertical-align:top;">:</td><td><div>Mozilla/5.0 (Macintosh; Intel Mac OS X 10_12_2) AppleWebKit/537.36 (KHTML, like Gecko) Chrome/56.0.2924.87 Safari/537.36</div></td></tr><tr><td style="font-weight:bold;vertical-align:top;">HTTP_WEB2PY_COMPONENT_ELEMENT</td><td style="vertical-align:top;">:</td><td><div>c763959944112</div></td></tr><tr><td style="font-weight:bold;vertical-align:top;">HTTP_WEB2PY_COMPONENT_LOCATION</td><td style="vertical-align:top;">:</td><td><div>http://127.0.0.1:8000/admin/default/edit/chemwastepro/views/inventory/chemindex.html?id=views__inventory__chemindex__html#</div></td></tr><tr><td style="font-weight:bold;vertical-align:top;">HTTP_X_REQUESTED_WITH</td><td style="vertical-align:top;">:</td><td><div>XMLHttpRequest</div></td></tr><tr><td style="font-weight:bold;vertical-align:top;">PATH_INFO</td><td style="vertical-align:top;">:</td><td><div>/chemwastepro/appadmin/hooks</div></td></tr><tr><td style="font-weight:bold;vertical-align:top;">QUERY_STRING</td><td style="vertical-align:top;">:</td><td><div></div></td></tr><tr><td style="font-weight:bold;vertical-align:top;">REMOTE_ADDR</td><td style="vertical-align:top;">:</td><td><div>127.0.0.1</div></td></tr><tr><td style="font-weight:bold;vertical-align:top;">REMOTE_PORT</td><td style="vertical-align:top;">:</td><td><div>53597</div></td></tr><tr><td style="font-weight:bold;vertical-align:top;">REQUEST_METHOD</td><td style="vertical-align:top;">:</td><td><div>GET</div></td></tr><tr><td style="font-weight:bold;vertical-align:top;">SCRIPT_NAME</td><td style="vertical-align:top;">:</td><td><div></div></td></tr><tr><td style="font-weight:bold;vertical-align:top;">SERVER_NAME</td><td style="vertical-align:top;">:</td><td><div>M1PDG8WL</div></td></tr><tr><td style="font-weight:bold;vertical-align:top;">SERVER_PORT</td><td style="vertical-align:top;">:</td><td><div>8000</div></td></tr><tr><td style="font-weight:bold;vertical-align:top;">SERVER_PROTOCOL</td><td style="vertical-align:top;">:</td><td><div>HTTP/1.1</div></td></tr><tr><td style="font-weight:bold;vertical-align:top;">SERVER_SOFTWARE</td><td style="vertical-align:top;">:</td><td><div>Rocket 1.2.6</div></td></tr><tr><td style="font-weight:bold;vertical-align:top;">app_folders</td><td style="vertical-align:top;">:</td><td><div>set([&#x27;/Users/byoung/Desktop/web2py/web2py.app/Contents/Resources/applications/admin/&#x27;, &#x27;/Users/byoung/Desktop/web2py/web2py.app/Contents/Resources/applications/welcome/&#x27;, &#x27;/Users/byoung/Desktop/web2py/web2py.app/Contents/Resources/applications/chemwastepro/&#x27;])</div></td></tr><tr><td style="font-weight:bold;vertical-align:top;">applications_parent</td><td style="vertical-align:top;">:</td><td><div>/Users/byoung/Desktop/web2py/web2py.app/Contents/Resources</div></td></tr><tr><td style="font-weight:bold;vertical-align:top;">cmd_args</td><td style="vertical-align:top;">:</td><td><div><table></table></div></td></tr><tr><td style="font-weight:bold;vertical-align:top;">cmd_options</td><td style="vertical-align:top;">:</td><td><div>&lt;Values at 0x106d20ef0: {&#x27;verbose&#x27;: False, &#x27;ip&#x27;: &#x27;127.0.0.1&#x27;, &#x27;debuglevel&#x27;: 30, &#x27;with_scheduler&#x27;: False, &#x27;shutdown_timeout&#x27;: 5, &#x27;taskbar&#x27;: False, &#x27;with_coverage&#x27;: False, &#x27;pid_filename&#x27;: &#x27;httpserver.pid&#x27;, &#x27;maxthreads&#x27;: None, &#x27;softcron&#x27;: False, &#x27;server_name&#x27;: &#x27;M1PDG8WL&#x27;, &#x27;bpython&#x27;: False, &#x27;nogui&#x27;: False, &#x27;port&#x27;: 8000, &#x27;print_errors&#x27;: False, &#x27;extcron&#x27;: False, &#x27;runcron&#x27;: False, &#x27;run_system_tests&#x27;: False, &#x27;test&#x27;: None, &#x27;folder&#x27;: &#x27;/Users/byoung/Desktop/web2py/web2py.app/Contents/Resources&#x27;, &#x27;config&#x27;: &#x27;&#x27;, &#x27;minthreads&#x27;: None, &#x27;shell&#x27;: None, &#x27;run&#x27;: &#x27;&#x27;, &#x27;log_filename&#x27;: &#x27;httpserver.log&#x27;, &#x27;profiler_dir&#x27;: None, &#x27;args&#x27;: [&#x27;&#x27;], &#x27;socket_timeout&#x27;: 5, &#x27;ssl_ca_certificate&#x27;: None, &#x27;scheduler&#x27;: None, &#x27;interfaces&#x27;: None, &#x27;ssl_private_key&#x27;: &#x27;&#x27;, &#x27;gae&#x27;: None, &#x27;password&#x27;: &#x27;******&#x27;, &#x27;request_queue_size&#x27;: 5, &#x27;ssl_certificate&#x27;: &#x27;&#x27;, &#x27;cronjob&#x27;: False, &#x27;numthreads&#x27;: None, &#x27;quiet&#x27;: False, &#x27;import_models&#x27;: False, &#x27;timeout&#x27;: 10, &#x27;plain&#x27;: False, &#x27;nobanner&#x27;: False}&gt;</div></td></tr><tr><td style="font-weight:bold;vertical-align:top;">db_sessions</td><td style="vertical-align:top;">:</td><td><div>set([])</div></td></tr><tr><td style="font-weight:bold;vertical-align:top;">debugging</td><td style="vertical-align:top;">:</td><td><div>True</div></td></tr><tr><td style="font-weight:bold;vertical-align:top;">gluon_parent</td><td style="vertical-align:top;">:</td><td><div>/Users/byoung/Desktop/web2py/web2py.app/Contents/Resources</div></td></tr><tr><td style="font-weight:bold;vertical-align:top;">http_accept</td><td style="vertical-align:top;">:</td><td><div>*/*</div></td></tr><tr><td style="font-weight:bold;vertical-align:top;">http_accept_encoding</td><td style="vertical-align:top;">:</td><td><div>gzip, deflate, sdch, br</div></td></tr><tr><td style="font-weight:bold;vertical-align:top;">http_accept_language</td><td style="vertical-align:top;">:</td><td><div>en-US,en;q=0.8,ms;q=0.6</div></td></tr><tr><td style="font-weight:bold;vertical-align:top;">http_connection</td><td style="vertical-align:top;">:</td><td><div>keep-alive</div></td></tr><tr><td style="font-weight:bold;vertical-align:top;">http_cookie</td><td style="vertical-align:top;">:</td><td><div>session_id_welcome=127.0.0.1-ba5a0d1a-6fa2-4839-9620-ad6f1d18c5b3; session_id_chemwastepro=127.0.0.1-01cbcd42-0920-4f73-befe-12de2ffe8d4b; session_id_admin=127.0.0.1-978e3300-ef3c-4d4c-9389-11fa943f7b64</div></td></tr><tr><td style="font-weight:bold;vertical-align:top;">http_host</td><td style="vertical-align:top;">:</td><td><div>127.0.0.1:8000</div></td></tr><tr><td style="font-weight:bold;vertical-align:top;">http_referer</td><td style="vertical-align:top;">:</td><td><div>http://127.0.0.1:8000/admin/default/edit/chemwastepro/views/inventory/chemindex.html?id=views__inventory__chemindex__html</div></td></tr><tr><td style="font-weight:bold;vertical-align:top;">http_user_agent</td><td style="vertical-align:top;">:</td><td><div>Mozilla/5.0 (Macintosh; Intel Mac OS X 10_12_2) AppleWebKit/537.36 (KHTML, like Gecko) Chrome/56.0.2924.87 Safari/537.36</div></td></tr><tr><td style="font-weight:bold;vertical-align:top;">http_web2py_component_element</td><td style="vertical-align:top;">:</td><td><div>c763959944112</div></td></tr><tr><td style="font-weight:bold;vertical-align:top;">http_web2py_component_location</td><td style="vertical-align:top;">:</td><td><div>http://127.0.0.1:8000/admin/default/edit/chemwastepro/views/inventory/chemindex.html?id=views__inventory__chemindex__html#</div></td></tr><tr><td style="font-weight:bold;vertical-align:top;">http_x_requested_with</td><td style="vertical-align:top;">:</td><td><div>XMLHttpRequest</div></td></tr><tr><td style="font-weight:bold;vertical-align:top;">is_jython</td><td style="vertical-align:top;">:</td><td><div>False</div></td></tr><tr><td style="font-weight:bold;vertical-align:top;">is_pypy</td><td style="vertical-align:top;">:</td><td><div>False</div></td></tr><tr><td style="font-weight:bold;vertical-align:top;">is_source</td><td style="vertical-align:top;">:</td><td><div>True</div></td></tr><tr><td style="font-weight:bold;vertical-align:top;">local_hosts</td><td style="vertical-align:top;">:</td><td><div><table><tr><td><div>::1</div></td></tr><tr><td><div>M1PDG8WL</div></td></tr><tr><td><div>::ffff:127.0.0.1</div></td></tr><tr><td><div>127.0.0.1</div></td></tr></table></div></td></tr><tr><td style="font-weight:bold;vertical-align:top;">path_info</td><td style="vertical-align:top;">:</td><td><div>/chemwastepro/appadmin/hooks</div></td></tr><tr><td style="font-weight:bold;vertical-align:top;">query_string</td><td style="vertical-align:top;">:</td><td><div></div></td></tr><tr><td style="font-weight:bold;vertical-align:top;">remote_addr</td><td style="vertical-align:top;">:</td><td><div>127.0.0.1</div></td></tr><tr><td style="font-weight:bold;vertical-align:top;">remote_port</td><td style="vertical-align:top;">:</td><td><div>53597</div></td></tr><tr><td style="font-weight:bold;vertical-align:top;">request_method</td><td style="vertical-align:top;">:</td><td><div>GET</div></td></tr><tr><td style="font-weight:bold;vertical-align:top;">request_uri</td><td style="vertical-align:top;">:</td><td><div>/chemwastepro/appadmin/hooks</div></td></tr><tr><td style="font-weight:bold;vertical-align:top;">script_name</td><td style="vertical-align:top;">:</td><td><div></div></td></tr><tr><td style="font-weight:bold;vertical-align:top;">server_name</td><td style="vertical-align:top;">:</td><td><div>M1PDG8WL</div></td></tr><tr><td style="font-weight:bold;vertical-align:top;">server_port</td><td style="vertical-align:top;">:</td><td><div>8000</div></td></tr><tr><td style="font-weight:bold;vertical-align:top;">server_protocol</td><td style="vertical-align:top;">:</td><td><div>HTTP/1.1</div></td></tr><tr><td style="font-weight:bold;vertical-align:top;">server_software</td><td style="vertical-align:top;">:</td><td><div>Rocket 1.2.6</div></td></tr><tr><td style="font-weight:bold;vertical-align:top;">web2py_path</td><td style="vertical-align:top;">:</td><td><div>/Users/byoung/Desktop/web2py/web2py.app/Contents/Resources</div></td></tr><tr><td style="font-weight:bold;vertical-align:top;">web2py_version</td><td style="vertical-align:top;">:</td><td><div>2.14.6-stable+timestamp.2016.05.10.00.21.47</div></td></tr><tr><td style="font-weight:bold;vertical-align:top;">wsgi.errors</td><td style="vertical-align:top;">:</td><td><div>&lt;open file &#x27;&lt;stderr&gt;&#x27;, mode &#x27;w&#x27; at 0x1000ae270&gt;</div></td></tr><tr><td style="font-weight:bold;vertical-align:top;">wsgi.file_wrapper</td><td style="vertical-align:top;">:</td><td><div>&lt;class wsgiref.util.FileWrapper at 0x1069da328&gt;</div></td></tr><tr><td style="font-weight:bold;vertical-align:top;">wsgi.input</td><td style="vertical-align:top;">:</td><td><div>&lt;socket._fileobject object at 0x28d6b30d0&gt;</div></td></tr><tr><td style="font-weight:bold;vertical-align:top;">wsgi.multiprocess</td><td style="vertical-align:top;">:</td><td><div>False</div></td></tr><tr><td style="font-weight:bold;vertical-align:top;">wsgi.multithread</td><td style="vertical-align:top;">:</td><td><div>True</div></td></tr><tr><td style="font-weight:bold;vertical-align:top;">wsgi.run_once</td><td style="vertical-align:top;">:</td><td><div>False</div></td></tr><tr><td style="font-weight:bold;vertical-align:top;">wsgi.url_scheme</td><td style="vertical-align:top;">:</td><td><div>http</div></td></tr><tr><td style="font-weight:bold;vertical-align:top;">wsgi.version</td><td style="vertical-align:top;">:</td><td><div><table><tr><td><div>1</div></td></tr><tr><td><div>0</div></td></tr></table></div></td></tr><tr><td style="font-weight:bold;vertical-align:top;">wsgi_errors</td><td style="vertical-align:top;">:</td><td><div>&lt;open file &#x27;&lt;stderr&gt;&#x27;, mode &#x27;w&#x27; at 0x1000ae270&gt;</div></td></tr><tr><td style="font-weight:bold;vertical-align:top;">wsgi_file_wrapper</td><td style="vertical-align:top;">:</td><td><div>&lt;class wsgiref.util.FileWrapper at 0x1069da328&gt;</div></td></tr><tr><td style="font-weight:bold;vertical-align:top;">wsgi_input</td><td style="vertical-align:top;">:</td><td><div>&lt;socket._fileobject object at 0x28d6b30d0&gt;</div></td></tr><tr><td style="font-weight:bold;vertical-align:top;">wsgi_multiprocess</td><td style="vertical-align:top;">:</td><td><div>False</div></td></tr><tr><td style="font-weight:bold;vertical-align:top;">wsgi_multithread</td><td style="vertical-align:top;">:</td><td><div>True</div></td></tr><tr><td style="font-weight:bold;vertical-align:top;">wsgi_run_once</td><td style="vertical-align:top;">:</td><td><div>False</div></td></tr><tr><td style="font-weight:bold;vertical-align:top;">wsgi_url_scheme</td><td style="vertical-align:top;">:</td><td><div>http</div></td></tr><tr><td style="font-weight:bold;vertical-align:top;">wsgi_version</td><td style="vertical-align:top;">:</td><td><div><table><tr><td><div>1</div></td></tr><tr><td><div>0</div></td></tr></table></div></td></tr></table></div></td></tr><tr><td style="font-weight:bold;vertical-align:top;">extension</td><td style="vertical-align:top;">:</td><td><div>html</div></td></tr><tr><td style="font-weight:bold;vertical-align:top;">folder</td><td style="vertical-align:top;">:</td><td><div>/Users/byoung/Desktop/web2py/web2py.app/Contents/Resources/applications/chemwastepro/</div></td></tr><tr><td style="font-weight:bold;vertical-align:top;">function</td><td style="vertical-align:top;">:</td><td><div>hooks</div></td></tr><tr><td style="font-weight:bold;vertical-align:top;">global_settings</td><td style="vertical-align:top;">:</td><td><div><table><tr><td style="font-weight:bold;vertical-align:top;">app_folders</td><td style="vertical-align:top;">:</td><td><div>set([&#x27;/Users/byoung/Desktop/web2py/web2py.app/Contents/Resources/applications/admin/&#x27;, &#x27;/Users/byoung/Desktop/web2py/web2py.app/Contents/Resources/applications/welcome/&#x27;, &#x27;/Users/byoung/Desktop/web2py/web2py.app/Contents/Resources/applications/chemwastepro/&#x27;])</div></td></tr><tr><td style="font-weight:bold;vertical-align:top;">applications_parent</td><td style="vertical-align:top;">:</td><td><div>/Users/byoung/Desktop/web2py/web2py.app/Contents/Resources</div></td></tr><tr><td style="font-weight:bold;vertical-align:top;">cmd_args</td><td style="vertical-align:top;">:</td><td><div><table></table></div></td></tr><tr><td style="font-weight:bold;vertical-align:top;">cmd_options</td><td style="vertical-align:top;">:</td><td><div>&lt;Values at 0x106d20ef0: {&#x27;verbose&#x27;: False, &#x27;ip&#x27;: &#x27;127.0.0.1&#x27;, &#x27;debuglevel&#x27;: 30, &#x27;with_scheduler&#x27;: False, &#x27;shutdown_timeout&#x27;: 5, &#x27;taskbar&#x27;: False, &#x27;with_coverage&#x27;: False, &#x27;pid_filename&#x27;: &#x27;httpserver.pid&#x27;, &#x27;maxthreads&#x27;: None, &#x27;softcron&#x27;: False, &#x27;server_name&#x27;: &#x27;M1PDG8WL&#x27;, &#x27;bpython&#x27;: False, &#x27;nogui&#x27;: False, &#x27;port&#x27;: 8000, &#x27;print_errors&#x27;: False, &#x27;extcron&#x27;: False, &#x27;runcron&#x27;: False, &#x27;run_system_tests&#x27;: False, &#x27;test&#x27;: None, &#x27;folder&#x27;: &#x27;/Users/byoung/Desktop/web2py/web2py.app/Contents/Resources&#x27;, &#x27;config&#x27;: &#x27;&#x27;, &#x27;minthreads&#x27;: None, &#x27;shell&#x27;: None, &#x27;run&#x27;: &#x27;&#x27;, &#x27;log_filename&#x27;: &#x27;httpserver.log&#x27;, &#x27;profiler_dir&#x27;: None, &#x27;args&#x27;: [&#x27;&#x27;], &#x27;socket_timeout&#x27;: 5, &#x27;ssl_ca_certificate&#x27;: None, &#x27;scheduler&#x27;: None, &#x27;interfaces&#x27;: None, &#x27;ssl_private_key&#x27;: &#x27;&#x27;, &#x27;gae&#x27;: None, &#x27;password&#x27;: &#x27;******&#x27;, &#x27;request_queue_size&#x27;: 5, &#x27;ssl_certificate&#x27;: &#x27;&#x27;, &#x27;cronjob&#x27;: False, &#x27;numthreads&#x27;: None, &#x27;quiet&#x27;: False, &#x27;import_models&#x27;: False, &#x27;timeout&#x27;: 10, &#x27;plain&#x27;: False, &#x27;nobanner&#x27;: False}&gt;</div></td></tr><tr><td style="font-weight:bold;vertical-align:top;">db_sessions</td><td style="vertical-align:top;">:</td><td><div>set([])</div></td></tr><tr><td style="font-weight:bold;vertical-align:top;">debugging</td><td style="vertical-align:top;">:</td><td><div>True</div></td></tr><tr><td style="font-weight:bold;vertical-align:top;">gluon_parent</td><td style="vertical-align:top;">:</td><td><div>/Users/byoung/Desktop/web2py/web2py.app/Contents/Resources</div></td></tr><tr><td style="font-weight:bold;vertical-align:top;">is_jython</td><td style="vertical-align:top;">:</td><td><div>False</div></td></tr><tr><td style="font-weight:bold;vertical-align:top;">is_pypy</td><td style="vertical-align:top;">:</td><td><div>False</div></td></tr><tr><td style="font-weight:bold;vertical-align:top;">is_source</td><td style="vertical-align:top;">:</td><td><div>True</div></td></tr><tr><td style="font-weight:bold;vertical-align:top;">local_hosts</td><td style="vertical-align:top;">:</td><td><div><table><tr><td><div>::1</div></td></tr><tr><td><div>M1PDG8WL</div></td></tr><tr><td><div>::ffff:127.0.0.1</div></td></tr><tr><td><div>127.0.0.1</div></td></tr></table></div></td></tr><tr><td style="font-weight:bold;vertical-align:top;">web2py_version</td><td style="vertical-align:top;">:</td><td><div>2.14.6-stable+timestamp.2016.05.10.00.21.47</div></td></tr></table></div></td></tr><tr><td style="font-weight:bold;vertical-align:top;">is_https</td><td style="vertical-align:top;">:</td><td><div>False</div></td></tr><tr><td style="font-weight:bold;vertical-align:top;">is_local</td><td style="vertical-align:top;">:</td><td><div>True</div></td></tr><tr><td style="font-weight:bold;vertical-align:top;">is_restful</td><td style="vertical-align:top;">:</td><td><div>False</div></td></tr><tr><td style="font-weight:bold;vertical-align:top;">is_scheduler</td><td style="vertical-align:top;">:</td><td><div>False</div></td></tr><tr><td style="font-weight:bold;vertical-align:top;">is_shell</td><td style="vertical-align:top;">:</td><td><div>False</div></td></tr><tr><td style="font-weight:bold;vertical-align:top;">now</td><td style="vertical-align:top;">:</td><td><div>datetime.datetime(2017, 3, 25, 23, 14, 15, 968161)</div></td></tr><tr><td style="font-weight:bold;vertical-align:top;">raw_args</td><td style="vertical-align:top;">:</td><td><div></div></td></tr><tr><td style="font-weight:bold;vertical-align:top;">raw_extension</td><td style="vertical-align:top;">:</td><td><div>None</div></td></tr><tr><td style="font-weight:bold;vertical-align:top;">url</td><td style="vertical-align:top;">:</td><td><div>/chemwastepro/appadmin/hooks</div></td></tr><tr><td style="font-weight:bold;vertical-align:top;">utcnow</td><td style="vertical-align:top;">:</td><td><div>datetime.datetime(2017, 3, 26, 6, 14, 15, 968168)</div></td></tr><tr><td style="font-weight:bold;vertical-align:top;">wsgi</td><td style="vertical-align:top;">:</td><td><div>&lt;gluon.main.LazyWSGI object at 0x275537dd0&gt;</div></td></tr></table></div>'
tRp69
sS'frames'
p70
(lp71
(dp72
S'file'
p73
S'/Users/byoung/Desktop/web2py/web2py.app/Contents/Resources/gluon/restricted.py'
p74
sS'dump'
p75
(dp76
sS'lnum'
p77
I226
sS'lines'
p78
(dp79
I224
S'            ccode = code'
p80
sI225
S'        else:'
p81
sI226
S'            ccode = compile2(code, layer)'
p82
sI227
S'        exec ccode in environment'
p83
sI228
S'    except HTTP:'
p84
sI229
S'        raise'
p85
sI230
S'    except RestrictedError:'
p86
sI221
S"    environment['__name__'] = '__restricted__'"
p87
sI222
S'    try:'
p88
sI223
S'        if isinstance(code, types.CodeType):'
p89
ssS'call'
p90
S"(code='# -*- coding: utf-8 -*-\\n\\n#######################...   else:\\n#        row.update_record(treatment=2)\\n', environment={'A': <class 'gluon.html.A'>, 'ANY_OF': <class 'gluon.validators.ANY_OF'>, 'ASSIGNJS': <function ASSIGNJS>, 'B': <class 'gluon.html.B'>, 'BEAUTIFY': <class 'gluon.html.BEAUTIFY'>, 'BODY': <class 'gluon.html.BODY'>, 'BR': <class 'gluon.html.BR'>, 'BUTTON': <class 'gluon.html.BUTTON'>, 'CAT': <class 'gluon.html.CAT'>, 'CENTER': <class 'gluon.html.CENTER'>, ...}, layer='/Users/byoung/Desktop/web2py/web2py.app/Contents/Resources/applications/chemwastepro/models/db.py')"
p91
sS'func'
p92
S'restricted'
p93
sa(dp94
g73
S'/Users/byoung/Desktop/web2py/web2py.app/Contents/Resources/gluon/restricted.py'
p95
sg75
(dp96
sg77
I209
sg78
(dp97
I204
S'def compile2(code, layer):'
p98
sI205
S'    """'
p99
sI206
S"    The ``+'\\\\n'`` is necessary else compile fails when code ends in a comment."
p100
sI207
S'    """'
p101
sI208
S''
sI209
S"    return compile(code.rstrip().replace('\\r\\n', '\\n') + '\\n', layer, 'exec')"
p102
sI210
S''
sI211
S''
sI212
S"def restricted(code, environment=None, layer='Unknown'):"
p103
sI213
S'    """'
p104
ssg90
S"(code='# -*- coding: utf-8 -*-\\n\\n#######################...   else:\\n#        row.update_record(treatment=2)\\n', layer='/Users/byoung/Desktop/web2py/web2py.app/Contents/Resources/applications/chemwastepro/models/db.py')"
p105
sg92
S'compile2'
p106
sasS'pyver'
p107
S'Python 2.7.3: /Users/byoung/Desktop/web2py/web2py.app/Contents/MacOS/python (prefix: /Users/byoung/Desktop/web2py/web2py.app/Contents/Resources)'
p108
sS'session'
p109
g68
(S's\x1a\x00\x00\x00<div><table></table></div>'
tRp110
sS'etype'
p111
S"<type 'exceptions.SyntaxError'>"
p112
sS'date'
p113
S'Sat Mar 25 23:14:15 2017'
p114
sS'response'
p115
g68
(S's\xc8\x17\x00\x00<div><table><tr><td style="font-weight:bold;vertical-align:top;">body</td><td style="vertical-align:top;">:</td><td><div>&lt;cStringIO.StringO object at 0x28be87180&gt;</div></td></tr><tr><td style="font-weight:bold;vertical-align:top;">cookies</td><td style="vertical-align:top;">:</td><td><div><table><tr><td style="font-weight:bold;vertical-align:top;">session_id_chemwastepro</td><td style="vertical-align:top;">:</td><td><div>127.0.0.1-01cbcd42-0920-4f73-befe-12de2ffe8d4b<table><tr><td style="font-weight:bold;vertical-align:top;">comment</td><td style="vertical-align:top;">:</td><td><div></div></td></tr><tr><td style="font-weight:bold;vertical-align:top;">domain</td><td style="vertical-align:top;">:</td><td><div></div></td></tr><tr><td style="font-weight:bold;vertical-align:top;">expires</td><td style="vertical-align:top;">:</td><td><div></div></td></tr><tr><td style="font-weight:bold;vertical-align:top;">httponly</td><td style="vertical-align:top;">:</td><td><div></div></td></tr><tr><td style="font-weight:bold;vertical-align:top;">max-age</td><td style="vertical-align:top;">:</td><td><div></div></td></tr><tr><td style="font-weight:bold;vertical-align:top;">path</td><td style="vertical-align:top;">:</td><td><div>/</div></td></tr><tr><td style="font-weight:bold;vertical-align:top;">secure</td><td style="vertical-align:top;">:</td><td><div></div></td></tr><tr><td style="font-weight:bold;vertical-align:top;">version</td><td style="vertical-align:top;">:</td><td><div></div></td></tr></table></div></td></tr></table></div></td></tr><tr><td style="font-weight:bold;vertical-align:top;">delimiters</td><td style="vertical-align:top;">:</td><td><div><table><tr><td><div>{{</div></td></tr><tr><td><div>}}</div></td></tr></table></div></td></tr><tr><td style="font-weight:bold;vertical-align:top;">files</td><td style="vertical-align:top;">:</td><td><div><table></table></div></td></tr><tr><td style="font-weight:bold;vertical-align:top;">flash</td><td style="vertical-align:top;">:</td><td><div></div></td></tr><tr><td style="font-weight:bold;vertical-align:top;">form_label_separator</td><td style="vertical-align:top;">:</td><td><div>: </div></td></tr><tr><td style="font-weight:bold;vertical-align:top;">formstyle</td><td style="vertical-align:top;">:</td><td><div>table3cols</div></td></tr><tr><td style="font-weight:bold;vertical-align:top;">generic_patterns</td><td style="vertical-align:top;">:</td><td><div><table><tr><td><div>*</div></td></tr></table></div></td></tr><tr><td style="font-weight:bold;vertical-align:top;">headers</td><td style="vertical-align:top;">:</td><td><div><table><tr><td style="font-weight:bold;vertical-align:top;">X-Powered-By</td><td style="vertical-align:top;">:</td><td><div>web2py</div></td></tr></table></div></td></tr><tr><td style="font-weight:bold;vertical-align:top;">menu</td><td style="vertical-align:top;">:</td><td><div><table></table></div></td></tr><tr><td style="font-weight:bold;vertical-align:top;">meta</td><td style="vertical-align:top;">:</td><td><div><table></table></div></td></tr><tr><td style="font-weight:bold;vertical-align:top;">models_to_run</td><td style="vertical-align:top;">:</td><td><div><table><tr><td><div>^\\w+\\.py$</div></td></tr><tr><td><div>^appadmin/\\w+\\.py$</div></td></tr><tr><td><div>^appadmin/hooks/\\w+\\.py$</div></td></tr></table></div></td></tr><tr><td style="font-weight:bold;vertical-align:top;">postprocessing</td><td style="vertical-align:top;">:</td><td><div><table></table></div></td></tr><tr><td style="font-weight:bold;vertical-align:top;">session_client</td><td style="vertical-align:top;">:</td><td><div>127.0.0.1</div></td></tr><tr><td style="font-weight:bold;vertical-align:top;">session_cookie_compression_level</td><td style="vertical-align:top;">:</td><td><div>None</div></td></tr><tr><td style="font-weight:bold;vertical-align:top;">session_cookie_expires</td><td style="vertical-align:top;">:</td><td><div>None</div></td></tr><tr><td style="font-weight:bold;vertical-align:top;">session_data_name</td><td style="vertical-align:top;">:</td><td><div>session_data_chemwastepro</div></td></tr><tr><td style="font-weight:bold;vertical-align:top;">session_file</td><td style="vertical-align:top;">:</td><td><div>&lt;open file &#x27;/Users/byoung/Desktop/web2py/web2py.app/Contents/Resources/applications/chemwastepro/sessions/0bb/126/127.0.0.1-01cbcd42-0920-4f73-befe-12de2ffe8d4b&#x27;, mode &#x27;rb+&#x27; at 0x10ea28390&gt;</div></td></tr><tr><td style="font-weight:bold;vertical-align:top;">session_filename</td><td style="vertical-align:top;">:</td><td><div>/Users/byoung/Desktop/web2py/web2py.app/Contents/Resources/applications/chemwastepro/sessions/127.0.0.1-01cbcd42-0920-4f73-befe-12de2ffe8d4b</div></td></tr><tr><td style="font-weight:bold;vertical-align:top;">session_hash</td><td style="vertical-align:top;">:</td><td><div>06f4751aff217d8dc769515becb5f881</div></td></tr><tr><td style="font-weight:bold;vertical-align:top;">session_id</td><td style="vertical-align:top;">:</td><td><div>127.0.0.1-01cbcd42-0920-4f73-befe-12de2ffe8d4b</div></td></tr><tr><td style="font-weight:bold;vertical-align:top;">session_id_name</td><td style="vertical-align:top;">:</td><td><div>session_id_chemwastepro</div></td></tr><tr><td style="font-weight:bold;vertical-align:top;">session_locked</td><td style="vertical-align:top;">:</td><td><div>True</div></td></tr><tr><td style="font-weight:bold;vertical-align:top;">session_masterapp</td><td style="vertical-align:top;">:</td><td><div>chemwastepro</div></td></tr><tr><td style="font-weight:bold;vertical-align:top;">session_new</td><td style="vertical-align:top;">:</td><td><div>False</div></td></tr><tr><td style="font-weight:bold;vertical-align:top;">session_storage_type</td><td style="vertical-align:top;">:</td><td><div>file</div></td></tr><tr><td style="font-weight:bold;vertical-align:top;">status</td><td style="vertical-align:top;">:</td><td><div>200</div></td></tr><tr><td style="font-weight:bold;vertical-align:top;">view</td><td style="vertical-align:top;">:</td><td><div>appadmin/hooks.html</div></td></tr></table></div>'
tRp116
sS'locals'
p117
(dp118
g4
S"'/Users/byoung/Desktop/web2py/web2py.app/Contents/Resources/applications/chemwastepro/models/db.py'"
p119
sg6
S"'# -*- coding: utf-8 -*-\\n\\n#######################...   else:\\n#        row.update_record(treatment=2)\\n'"
p120
sssS'traceback'
p121
S'Traceback (most recent call last):\n  File "/Users/byoung/Desktop/web2py/web2py.app/Contents/Resources/gluon/restricted.py", line 226, in restricted\n  File "/Users/byoung/Desktop/web2py/web2py.app/Contents/Resources/gluon/restricted.py", line 209, in compile2\n  File "/Users/byoung/Desktop/web2py/web2py.app/Contents/Resources/applications/chemwastepro/models/db.py", line 247\n    >>> db.chemindex.virtualfields.append(ciVirtualFields())\n     ^\nSyntaxError: invalid syntax\n'
p122
s.